	.file	"cpp-mandelbrot-pgm.c"
	.text
.Ltext0:
	.local	data
	.comm	data,8388608,32
	.local	code
	.comm	code,262144,32
	.local	dtmp
	.comm	dtmp,8388608,32
	.data
	.align 8
	.type	d, @object
	.size	d, 8
d:
	.quad	data+8388608
	.align 8
	.type	D, @object
	.size	D, 8
D:
	.quad	dtmp
	.align 8
	.type	c, @object
	.size	c, 8
c:
	.quad	code+262144
	.local	tmp
	.comm	tmp,8,8
	.section	.rodata
.LC0:
	.string	"%d\n"
.LC1:
	.string	"%f\n"
.LC2:
	.string	"\n[data]\n"
	.align 8
.LC3:
	.string	"%4d|i%20lld|v%20lld|dv%20lf|V\n"
.LC4:
	.string	"[daux]\n"
.LC5:
	.string	"[code]\n"
.LC6:
	.string	"%4d|i%20lld|dv\n"
	.text
	.globl	main
	.type	main, @function
main:
.LFB0:
	.file 1 "test/cpp-mandelbrot-pgm.c"
	.loc 1 20 0
	.cfi_startproc
	pushq	%rbp
.LCFI0:
	.cfi_def_cfa_offset 16
	.cfi_offset 6, -16
	movq	%rsp, %rbp
.LCFI1:
	.cfi_def_cfa_register 6
	pushq	%rbx
	subq	$920, %rsp
	.loc 1 22 0
	leaq	-928(%rbp), %rsi
	movl	$0, %eax
	movl	$110, %edx
	movq	%rsi, %rdi
	movq	%rdx, %rcx
	rep stosq
	movl	$.L2, %eax
	movq	%rax, -928(%rbp)
	movl	$.L3, %eax
	movq	%rax, -920(%rbp)
	movl	$.L4, %eax
	movq	%rax, -912(%rbp)
	movl	$.L5, %eax
	movq	%rax, -904(%rbp)
	movl	$.L6, %eax
	movq	%rax, -104(%rbp)
	movl	$.L7, %eax
	movq	%rax, -96(%rbp)
	movl	$.L8, %eax
	movq	%rax, -88(%rbp)
	movl	$.L9, %eax
	movq	%rax, -80(%rbp)
	movl	$.L10, %eax
	movq	%rax, -72(%rbp)
	movl	$.L11, %eax
	movq	%rax, -64(%rbp)
	movl	$.L12, %eax
	movq	%rax, -56(%rbp)
	.loc 1 23 0
	leaq	-928(%rbp), %rax
	addq	$832, %rax
	movq	%rax, -40(%rbp)
	.loc 1 24 0
	movl	$0, -20(%rbp)
	.loc 1 25 0
	movq	$0, -32(%rbp)
	.loc 1 26 0
	movq	c(%rip), %rax
	subq	$8, %rax
	movq	%rax, c(%rip)
	movq	c(%rip), %rax
	movl	$.L13, %edx
	movq	%rdx, (%rax)
	.loc 1 27 0
	nop
.L14:
	.loc 1 335 0
	movq	d(%rip), %rax
	subq	$8, %rax
	movq	%rax, d(%rip)
	movq	d(%rip), %rax
	movq	$1, (%rax)
	.loc 1 336 0
	movq	c(%rip), %rax
	subq	$8, %rax
	movq	%rax, c(%rip)
	movq	c(%rip), %rax
	movl	$.L68, %edx
	movq	%rdx, (%rax)
	movq	d(%rip), %rax
	movq	(%rax), %rdx
	salq	$3, %rdx
	addq	-40(%rbp), %rdx
	movq	(%rdx), %rdx
	addq	$8, %rax
	movq	%rax, d(%rip)
	movq	%rdx, %rax
	jmp	.L15
	.cfi_offset 3, -24
.L13:
	.loc 1 28 0
	movq	d(%rip), %rax
	movq	(%rax), %rax
	.loc 1 386 0
	addq	$920, %rsp
	popq	%rbx
	popq	%rbp
	.cfi_remember_state
.LCFI2:
	.cfi_def_cfa 7, 8
	ret
.L5:
.LCFI3:
	.cfi_restore_state
	.loc 1 29 0
	movq	d(%rip), %rax
	movq	(%rax), %rdx
	addq	$8, %rax
	movq	%rax, d(%rip)
	movl	$.LC0, %eax
	movq	%rdx, %rsi
	movq	%rax, %rdi
	movl	$0, %eax
	call	printf
	movq	c(%rip), %rax
	movq	(%rax), %rdx
	addq	$8, %rax
	movq	%rax, c(%rip)
	movq	%rdx, %rax
.L15:
	jmp	*%rax
.L4:
	.loc 1 30 0
	movq	d(%rip), %rax
	movq	(%rax), %rdx
	addq	$8, %rax
	movq	%rax, d(%rip)
	movl	$.LC1, %eax
	movq	%rdx, %rsi
	movq	%rax, %rdi
	movl	$0, %eax
	call	printf
	movq	c(%rip), %rax
	movq	(%rax), %rdx
	addq	$8, %rax
	movq	%rax, c(%rip)
	movq	%rdx, %rax
	jmp	.L15
.L3:
	.loc 1 32 0
	movq	stderr(%rip), %rax
	movq	%rax, %rdx
	movl	$.LC2, %eax
	movq	%rdx, %rcx
	movl	$8, %edx
	movl	$1, %esi
	movq	%rax, %rdi
	call	fwrite
	movq	d(%rip), %rax
	movq	%rax, -32(%rbp)
	jmp	.L16
.L17:
	.loc 1 32 0 is_stmt 0 discriminator 2
	movq	-32(%rbp), %rax
	movq	(%rax), %rdi
	movq	-32(%rbp), %rax
	movq	(%rax), %rdx
	movl	$main, %eax
	movq	%rdx, %r8
	subq	%rax, %r8
	movq	-32(%rbp), %rax
	movq	(%rax), %rcx
	movq	-32(%rbp), %rdx
	movq	d(%rip), %rax
	movq	%rdx, %rbx
	subq	%rax, %rbx
	movq	%rbx, %rax
	sarq	$3, %rax
	movq	%rax, %rdx
	movl	$.LC3, %esi
	movq	stderr(%rip), %rax
	movq	%rdi, %r9
	movq	%rax, %rdi
	movl	$0, %eax
	call	fprintf
	addq	$8, -32(%rbp)
.L16:
	.loc 1 32 0 discriminator 1
	cmpq	$data+8388608, -32(%rbp)
	jb	.L17
	.loc 1 33 0 is_stmt 1
	movq	stderr(%rip), %rax
	movq	%rax, %rdx
	movl	$.LC4, %eax
	movq	%rdx, %rcx
	movl	$7, %edx
	movl	$1, %esi
	movq	%rax, %rdi
	call	fwrite
	movq	$dtmp, -32(%rbp)
	jmp	.L18
.L19:
	.loc 1 33 0 is_stmt 0 discriminator 2
	movq	-32(%rbp), %rax
	movq	(%rax), %rdi
	movq	-32(%rbp), %rax
	movq	(%rax), %rdx
	movl	$main, %eax
	movq	%rdx, %r8
	subq	%rax, %r8
	movq	-32(%rbp), %rax
	movq	(%rax), %rcx
	movq	-32(%rbp), %rdx
	movl	$dtmp, %eax
	movq	%rdx, %rbx
	subq	%rax, %rbx
	movq	%rbx, %rax
	sarq	$3, %rax
	movq	%rax, %rdx
	movl	$.LC3, %esi
	movq	stderr(%rip), %rax
	movq	%rdi, %r9
	movq	%rax, %rdi
	movl	$0, %eax
	call	fprintf
	addq	$8, -32(%rbp)
.L18:
	.loc 1 33 0 discriminator 1
	movq	D(%rip), %rax
	cmpq	%rax, -32(%rbp)
	jb	.L19
	.loc 1 34 0 is_stmt 1
	movq	stderr(%rip), %rax
	movq	%rax, %rdx
	movl	$.LC5, %eax
	movq	%rdx, %rcx
	movl	$7, %edx
	movl	$1, %esi
	movq	%rax, %rdi
	call	fwrite
	movq	c(%rip), %rax
	movq	%rax, -32(%rbp)
	jmp	.L20
.L21:
	.loc 1 34 0 is_stmt 0 discriminator 2
	movq	-32(%rbp), %rax
	movq	(%rax), %rdx
	movl	$main, %eax
	movq	%rdx, %rcx
	subq	%rax, %rcx
	movq	-32(%rbp), %rdx
	movq	c(%rip), %rax
	movq	%rdx, %rdi
	subq	%rax, %rdi
	movq	%rdi, %rax
	sarq	$3, %rax
	movq	%rax, %rdx
	movl	$.LC6, %esi
	movq	stderr(%rip), %rax
	movq	%rax, %rdi
	movl	$0, %eax
	call	fprintf
	addq	$8, -32(%rbp)
.L20:
	.loc 1 34 0 discriminator 1
	cmpq	$code+262144, -32(%rbp)
	jb	.L21
	.loc 1 35 0 is_stmt 1
	movq	c(%rip), %rax
	movq	(%rax), %rdx
	addq	$8, %rax
	movq	%rax, c(%rip)
	movq	%rdx, %rax
	jmp	.L15
.L2:
	.loc 1 36 0
	movq	d(%rip), %rax
	movq	(%rax), %rdx
	imull	$1000, %edx, %edx
	addq	$8, %rax
	movq	%rax, d(%rip)
	movl	%edx, %edi
	call	usleep
	movq	c(%rip), %rax
	movq	(%rax), %rdx
	addq	$8, %rax
	movq	%rax, c(%rip)
	movq	%rdx, %rax
	jmp	.L15
.L6:
	.loc 1 38 0
	movq	stdout(%rip), %rcx
	movq	d(%rip), %rax
	movq	(%rax), %rdx
	movsbl	%dl, %edx
	addq	$8, %rax
	movq	%rax, d(%rip)
	movq	%rcx, %rsi
	movl	%edx, %edi
	call	_IO_putc
	movq	c(%rip), %rax
	movq	(%rax), %rdx
	addq	$8, %rax
	movq	%rax, c(%rip)
	movq	%rdx, %rax
	jmp	.L15
.L22:
	.loc 1 42 0
	movq	d(%rip), %rax
	subq	$8, %rax
	movq	%rax, d(%rip)
	movq	d(%rip), %rax
	movl	$.L23, %edx
	movq	%rdx, (%rax)
	.loc 1 43 0
	movq	d(%rip), %rax
	movq	(%rax), %rdx
	movq	%rdx, tmp(%rip)
	addq	$8, %rax
	movq	%rax, d(%rip)
	movq	D(%rip), %rdx
	movq	d(%rip), %rax
	movq	(%rax), %rcx
	movq	%rcx, (%rdx)
	addq	$8, %rdx
	movq	%rdx, D(%rip)
	addq	$8, %rax
	movq	%rax, d(%rip)
	movq	c(%rip), %rax
	subq	$8, %rax
	movq	%rax, c(%rip)
	movq	c(%rip), %rax
	movl	$.L24, %edx
	movq	%rdx, (%rax)
	movq	tmp(%rip), %rax
	jmp	.L15
.L24:
	movq	d(%rip), %rax
	subq	$8, %rax
	movq	%rax, d(%rip)
	movq	d(%rip), %rax
	movq	D(%rip), %rdx
	subq	$8, %rdx
	movq	%rdx, D(%rip)
	movq	D(%rip), %rdx
	movq	(%rdx), %rdx
	movq	%rdx, (%rax)
	.loc 1 44 0
	movq	d(%rip), %rax
	subq	$8, %rax
	movq	%rax, d(%rip)
	movq	d(%rip), %rax
	movq	$1, (%rax)
	.loc 1 45 0
	movq	d(%rip), %rax
	movq	d(%rip), %rcx
	movq	d(%rip), %rdx
	movq	(%rdx), %rdx
	addq	$1, %rdx
	salq	$3, %rdx
	addq	%rcx, %rdx
	movq	(%rdx), %rdx
	movq	%rdx, (%rax)
	.loc 1 47 0
	movq	d(%rip), %rax
	subq	$8, %rax
	movq	%rax, d(%rip)
	movq	d(%rip), %rax
	movl	$.L25, %edx
	movq	%rdx, (%rax)
	.loc 1 49 0
	movq	d(%rip), %rax
	subq	$8, %rax
	movq	%rax, d(%rip)
	movq	d(%rip), %rax
	movl	$.L26, %edx
	movq	%rdx, (%rax)
	.loc 1 51 0
	movq	d(%rip), %rax
	addq	$24, %rax
	movq	%rax, d(%rip)
	movq	d(%rip), %rdx
	movq	d(%rip), %rax
	subq	$8, %rax
	movq	(%rax), %rax
	testq	%rax, %rax
	jne	.L27
	.loc 1 51 0 is_stmt 0 discriminator 1
	movq	$-24, %rax
	jmp	.L28
.L27:
	.loc 1 51 0 discriminator 2
	movq	$-16, %rax
.L28:
	.loc 1 51 0 discriminator 3
	addq	%rdx, %rax
	movq	(%rax), %rax
	jmp	.L15
.L23:
	.loc 1 57 0 is_stmt 1
	movq	d(%rip), %rax
	movq	(%rax), %rdx
	subq	$1, %rdx
	movq	%rdx, (%rax)
	.loc 1 58 0
	movq	c(%rip), %rax
	movq	(%rax), %rdx
	addq	$8, %rax
	movq	%rax, c(%rip)
	movq	%rdx, %rax
	jmp	.L15
.L25:
	.loc 1 63 0
	movq	d(%rip), %rax
	subq	$8, %rax
	movq	%rax, d(%rip)
	movq	d(%rip), %rax
	movq	$3, (%rax)
	.loc 1 64 0
	movq	d(%rip), %rax
	movq	d(%rip), %rcx
	movq	d(%rip), %rdx
	movq	(%rdx), %rdx
	addq	$1, %rdx
	salq	$3, %rdx
	addq	%rcx, %rdx
	movq	(%rdx), %rdx
	movq	%rdx, (%rax)
	.loc 1 65 0
	movq	d(%rip), %rax
	subq	$8, %rax
	movq	%rax, d(%rip)
	movq	d(%rip), %rax
	movq	d(%rip), %rdx
	movq	8(%rdx), %rdx
	movq	%rdx, (%rax)
	.loc 1 66 0
	movq	d(%rip), %rax
	leaq	8(%rax), %rdx
	movq	d(%rip), %rax
	addq	$8, %rax
	movsd	(%rax), %xmm1
	movq	d(%rip), %rax
	movsd	(%rax), %xmm0
	mulsd	%xmm1, %xmm0
	movsd	%xmm0, (%rdx)
	movq	d(%rip), %rax
	addq	$8, %rax
	movq	%rax, d(%rip)
	.loc 1 67 0
	movq	d(%rip), %rax
	subq	$8, %rax
	movq	%rax, d(%rip)
	movq	d(%rip), %rax
	movq	$3, (%rax)
	.loc 1 68 0
	movq	d(%rip), %rax
	movq	d(%rip), %rcx
	movq	d(%rip), %rdx
	movq	(%rdx), %rdx
	addq	$1, %rdx
	salq	$3, %rdx
	addq	%rcx, %rdx
	movq	(%rdx), %rdx
	movq	%rdx, (%rax)
	.loc 1 69 0
	movq	d(%rip), %rax
	subq	$8, %rax
	movq	%rax, d(%rip)
	movq	d(%rip), %rax
	movq	d(%rip), %rdx
	movq	8(%rdx), %rdx
	movq	%rdx, (%rax)
	.loc 1 70 0
	movq	d(%rip), %rax
	leaq	8(%rax), %rdx
	movq	d(%rip), %rax
	addq	$8, %rax
	movsd	(%rax), %xmm1
	movq	d(%rip), %rax
	movsd	(%rax), %xmm0
	mulsd	%xmm1, %xmm0
	movsd	%xmm0, (%rdx)
	movq	d(%rip), %rax
	addq	$8, %rax
	movq	%rax, d(%rip)
	.loc 1 71 0
	movq	d(%rip), %rax
	leaq	8(%rax), %rdx
	movq	d(%rip), %rax
	addq	$8, %rax
	movsd	(%rax), %xmm1
	movq	d(%rip), %rax
	movsd	(%rax), %xmm0
	addsd	%xmm1, %xmm0
	movsd	%xmm0, (%rdx)
	movq	d(%rip), %rax
	addq	$8, %rax
	movq	%rax, d(%rip)
	.loc 1 73 0
	movq	d(%rip), %rax
	subq	$8, %rax
	movq	%rax, d(%rip)
	movq	d(%rip), %rax
	movq	$0, (%rax)
	.loc 1 74 0
	movq	d(%rip), %rcx
	movq	d(%rip), %rax
	movq	(%rax), %rdx
	movq	%rdx, %rax
	salq	$2, %rax
	addq	%rdx, %rax
	addq	%rax, %rax
	movq	%rax, (%rcx)
	movq	d(%rip), %rax
	movq	d(%rip), %rdx
	movq	(%rdx), %rdx
	addq	$4, %rdx
	movq	%rdx, (%rax)
	.loc 1 75 0
	movq	d(%rip), %rax
	movq	d(%rip), %rdx
	movq	(%rdx), %rdx
	cvtsi2sdq	%rdx, %xmm0
	movsd	%xmm0, (%rax)
	.loc 1 76 0
	movq	d(%rip), %rax
	movsd	(%rax), %xmm1
	movq	d(%rip), %rax
	addq	$8, %rax
	movsd	(%rax), %xmm0
	ucomisd	%xmm1, %xmm0
	seta	%al
	movzbl	%al, %eax
	movq	%rax, tmp(%rip)
	movq	d(%rip), %rax
	addq	$8, %rax
	movq	%rax, d(%rip)
	movq	d(%rip), %rax
	movq	tmp(%rip), %rdx
	movq	%rdx, (%rax)
	.loc 1 78 0
	movq	d(%rip), %rax
	subq	$8, %rax
	movq	%rax, d(%rip)
	movq	d(%rip), %rax
	movl	$.L29, %edx
	movq	%rdx, (%rax)
	.loc 1 80 0
	movq	d(%rip), %rax
	subq	$8, %rax
	movq	%rax, d(%rip)
	movq	d(%rip), %rax
	movl	$.L30, %edx
	movq	%rdx, (%rax)
	.loc 1 82 0
	movq	d(%rip), %rax
	addq	$24, %rax
	movq	%rax, d(%rip)
	movq	d(%rip), %rdx
	movq	d(%rip), %rax
	subq	$8, %rax
	movq	(%rax), %rax
	testq	%rax, %rax
	jne	.L31
	.loc 1 82 0 is_stmt 0 discriminator 1
	movq	$-24, %rax
	jmp	.L32
.L31:
	.loc 1 82 0 discriminator 2
	movq	$-16, %rax
.L32:
	.loc 1 82 0 discriminator 3
	addq	%rdx, %rax
	movq	(%rax), %rax
	jmp	.L15
.L29:
	.loc 1 88 0 is_stmt 1
	movq	d(%rip), %rax
	subq	$8, %rax
	movq	%rax, d(%rip)
	movq	d(%rip), %rax
	movq	$1, (%rax)
	.loc 1 89 0
	movq	d(%rip), %rax
	movq	d(%rip), %rcx
	movq	d(%rip), %rdx
	movq	(%rdx), %rdx
	addq	$1, %rdx
	salq	$3, %rdx
	addq	%rcx, %rdx
	movq	(%rdx), %rdx
	movq	%rdx, (%rax)
	.loc 1 90 0
	movq	d(%rip), %rax
	subq	$8, %rax
	movq	%rax, d(%rip)
	movq	d(%rip), %rax
	movl	$.L33, %edx
	movq	%rdx, (%rax)
	.loc 1 91 0
	movq	d(%rip), %rax
	movq	(%rax), %rdx
	movq	%rdx, tmp(%rip)
	addq	$8, %rax
	movq	%rax, d(%rip)
	movq	D(%rip), %rdx
	movq	d(%rip), %rax
	movq	(%rax), %rcx
	movq	%rcx, (%rdx)
	addq	$8, %rdx
	movq	%rdx, D(%rip)
	addq	$8, %rax
	movq	%rax, d(%rip)
	movq	c(%rip), %rax
	subq	$8, %rax
	movq	%rax, c(%rip)
	movq	c(%rip), %rax
	movl	$.L34, %edx
	movq	%rdx, (%rax)
	movq	tmp(%rip), %rax
	jmp	.L15
.L34:
	movq	d(%rip), %rax
	subq	$8, %rax
	movq	%rax, d(%rip)
	movq	d(%rip), %rax
	movq	D(%rip), %rdx
	subq	$8, %rdx
	movq	%rdx, D(%rip)
	movq	D(%rip), %rdx
	movq	(%rdx), %rdx
	movq	%rdx, (%rax)
	.loc 1 92 0
	movq	c(%rip), %rax
	movq	(%rax), %rdx
	addq	$8, %rax
	movq	%rax, c(%rip)
	movq	%rdx, %rax
	jmp	.L15
.L33:
	.loc 1 97 0
	movq	d(%rip), %rax
	subq	$8, %rax
	movq	%rax, d(%rip)
	movq	d(%rip), %rax
	movq	$0, (%rax)
	.loc 1 98 0
	movq	d(%rip), %rcx
	movq	d(%rip), %rax
	movq	(%rax), %rdx
	movq	%rdx, %rax
	salq	$2, %rax
	addq	%rdx, %rax
	addq	%rax, %rax
	movq	%rax, (%rcx)
	movq	d(%rip), %rax
	movq	d(%rip), %rdx
	movq	(%rdx), %rdx
	addq	$6, %rdx
	movq	%rdx, (%rax)
	.loc 1 99 0
	movq	d(%rip), %rdx
	movq	d(%rip), %rax
	movq	(%rax), %rax
	addq	$1, %rax
	salq	$3, %rax
	addq	%rdx, %rax
	movq	%rax, d(%rip)
	.loc 1 100 0
	movq	c(%rip), %rax
	movq	(%rax), %rdx
	addq	$8, %rax
	movq	%rax, c(%rip)
	movq	%rdx, %rax
	jmp	.L15
.L30:
	.loc 1 105 0
	movq	d(%rip), %rax
	subq	$8, %rax
	movq	%rax, d(%rip)
	movq	d(%rip), %rax
	movl	$.L35, %edx
	movq	%rdx, (%rax)
	.loc 1 106 0
	movq	d(%rip), %rax
	subq	$8, %rax
	movq	%rax, d(%rip)
	movq	d(%rip), %rax
	movq	$2, (%rax)
	.loc 1 107 0
	movq	d(%rip), %rax
	addq	$16, %rax
	movq	%rax, d(%rip)
	movl	$0, -20(%rbp)
	jmp	.L36
.L37:
	.loc 1 107 0 is_stmt 0 discriminator 2
	movq	D(%rip), %rax
	movq	d(%rip), %rdx
	movl	-20(%rbp), %ecx
	movslq	%ecx, %rcx
	salq	$3, %rcx
	addq	%rcx, %rdx
	movq	(%rdx), %rdx
	movq	%rdx, (%rax)
	addq	$8, %rax
	movq	%rax, D(%rip)
	addl	$1, -20(%rbp)
.L36:
	.loc 1 107 0 discriminator 1
	movl	-20(%rbp), %eax
	movslq	%eax, %rdx
	movq	d(%rip), %rax
	subq	$16, %rax
	movq	(%rax), %rax
	cmpq	%rax, %rdx
	jl	.L37
	.loc 1 107 0 discriminator 3
	movq	d(%rip), %rax
	movq	-8(%rax), %rax
	movq	%rax, tmp(%rip)
	movq	d(%rip), %rcx
	movq	D(%rip), %rax
	movl	-20(%rbp), %edx
	movslq	%edx, %rdx
	movq	%rdx, (%rax)
	movq	(%rax), %rdx
	salq	$3, %rdx
	addq	%rcx, %rdx
	movq	%rdx, d(%rip)
	addq	$8, %rax
	movq	%rax, D(%rip)
	movq	c(%rip), %rax
	subq	$8, %rax
	movq	%rax, c(%rip)
	movq	c(%rip), %rax
	movl	$.L38, %edx
	movq	%rdx, (%rax)
	movq	tmp(%rip), %rax
	jmp	.L15
.L38:
	.loc 1 107 0
	movq	D(%rip), %rax
	subq	$8, %rax
	movq	%rax, D(%rip)
	movq	D(%rip), %rax
	movq	(%rax), %rax
	movl	%eax, -20(%rbp)
	jmp	.L39
.L40:
	.loc 1 107 0 discriminator 2
	movq	d(%rip), %rax
	subq	$8, %rax
	movq	%rax, d(%rip)
	movq	d(%rip), %rax
	movq	D(%rip), %rdx
	subq	$8, %rdx
	movq	%rdx, D(%rip)
	movq	D(%rip), %rdx
	movq	(%rdx), %rdx
	movq	%rdx, (%rax)
	subl	$1, -20(%rbp)
.L39:
	.loc 1 107 0 discriminator 1
	cmpl	$0, -20(%rbp)
	jg	.L40
	.loc 1 109 0 is_stmt 1
	movq	d(%rip), %rax
	movq	(%rax), %rdx
	addq	$8, %rax
	movq	%rax, d(%rip)
	movq	%rdx, %rax
	jmp	.L15
.L35:
	.loc 1 115 0
	movq	d(%rip), %rax
	subq	$8, %rax
	movq	%rax, d(%rip)
	movq	d(%rip), %rax
	movq	$1, (%rax)
	.loc 1 116 0
	movq	d(%rip), %rax
	movq	d(%rip), %rcx
	movq	d(%rip), %rdx
	movq	(%rdx), %rdx
	addq	$1, %rdx
	salq	$3, %rdx
	addq	%rcx, %rdx
	movq	(%rdx), %rdx
	movq	%rdx, (%rax)
	.loc 1 117 0
	movq	d(%rip), %rax
	subq	$8, %rax
	movq	%rax, d(%rip)
	movq	d(%rip), %rax
	movq	d(%rip), %rdx
	movq	8(%rdx), %rdx
	movq	%rdx, (%rax)
	.loc 1 118 0
	movq	d(%rip), %rax
	leaq	8(%rax), %rdx
	movq	d(%rip), %rax
	addq	$8, %rax
	movsd	(%rax), %xmm1
	movq	d(%rip), %rax
	movsd	(%rax), %xmm0
	mulsd	%xmm1, %xmm0
	movsd	%xmm0, (%rdx)
	movq	d(%rip), %rax
	addq	$8, %rax
	movq	%rax, d(%rip)
	.loc 1 120 0
	movq	d(%rip), %rax
	subq	$8, %rax
	movq	%rax, d(%rip)
	movq	d(%rip), %rax
	movq	$1, (%rax)
	.loc 1 121 0
	movq	d(%rip), %rax
	movq	d(%rip), %rcx
	movq	d(%rip), %rdx
	movq	(%rdx), %rdx
	addq	$1, %rdx
	salq	$3, %rdx
	addq	%rcx, %rdx
	movq	(%rdx), %rdx
	movq	%rdx, (%rax)
	.loc 1 122 0
	movq	d(%rip), %rax
	subq	$8, %rax
	movq	%rax, d(%rip)
	movq	d(%rip), %rax
	movq	d(%rip), %rdx
	movq	8(%rdx), %rdx
	movq	%rdx, (%rax)
	.loc 1 123 0
	movq	d(%rip), %rax
	leaq	8(%rax), %rdx
	movq	d(%rip), %rax
	addq	$8, %rax
	movsd	(%rax), %xmm1
	movq	d(%rip), %rax
	movsd	(%rax), %xmm0
	mulsd	%xmm1, %xmm0
	movsd	%xmm0, (%rdx)
	movq	d(%rip), %rax
	addq	$8, %rax
	movq	%rax, d(%rip)
	.loc 1 125 0
	movq	d(%rip), %rax
	leaq	8(%rax), %rdx
	movq	d(%rip), %rax
	addq	$8, %rax
	movsd	(%rax), %xmm0
	movq	d(%rip), %rax
	movsd	(%rax), %xmm1
	subsd	%xmm1, %xmm0
	movsd	%xmm0, (%rdx)
	movq	d(%rip), %rax
	addq	$8, %rax
	movq	%rax, d(%rip)
	.loc 1 127 0
	movq	d(%rip), %rax
	subq	$8, %rax
	movq	%rax, d(%rip)
	movq	d(%rip), %rax
	movq	$0, (%rax)
	.loc 1 128 0
	movq	d(%rip), %rcx
	movq	d(%rip), %rax
	movq	(%rax), %rdx
	movq	%rdx, %rax
	salq	$2, %rax
	addq	%rdx, %rax
	addq	%rax, %rax
	movq	%rax, (%rcx)
	movq	d(%rip), %rax
	movq	d(%rip), %rdx
	movq	(%rdx), %rdx
	addq	$4, %rdx
	movq	%rdx, (%rax)
	.loc 1 129 0
	movq	d(%rip), %rax
	movq	d(%rip), %rcx
	movq	d(%rip), %rdx
	movq	(%rdx), %rdx
	addq	$1, %rdx
	salq	$3, %rdx
	addq	%rcx, %rdx
	movq	(%rdx), %rdx
	movq	%rdx, (%rax)
	.loc 1 130 0
	movq	d(%rip), %rax
	leaq	8(%rax), %rdx
	movq	d(%rip), %rax
	addq	$8, %rax
	movsd	(%rax), %xmm1
	movq	d(%rip), %rax
	movsd	(%rax), %xmm0
	addsd	%xmm1, %xmm0
	movsd	%xmm0, (%rdx)
	movq	d(%rip), %rax
	addq	$8, %rax
	movq	%rax, d(%rip)
	.loc 1 132 0
	movq	d(%rip), %rax
	subq	$8, %rax
	movq	%rax, d(%rip)
	movq	d(%rip), %rax
	movl	$.L41, %edx
	movq	%rdx, (%rax)
	.loc 1 133 0
	movq	d(%rip), %rax
	movq	(%rax), %rdx
	movq	%rdx, tmp(%rip)
	addq	$8, %rax
	movq	%rax, d(%rip)
	movq	D(%rip), %rdx
	movq	d(%rip), %rax
	movq	(%rax), %rcx
	movq	%rcx, (%rdx)
	addq	$8, %rdx
	movq	%rdx, D(%rip)
	addq	$8, %rax
	movq	%rax, d(%rip)
	movq	c(%rip), %rax
	subq	$8, %rax
	movq	%rax, c(%rip)
	movq	c(%rip), %rax
	movl	$.L42, %edx
	movq	%rdx, (%rax)
	movq	tmp(%rip), %rax
	jmp	.L15
.L42:
	movq	d(%rip), %rax
	subq	$8, %rax
	movq	%rax, d(%rip)
	movq	d(%rip), %rax
	movq	D(%rip), %rdx
	subq	$8, %rdx
	movq	%rdx, D(%rip)
	movq	D(%rip), %rdx
	movq	(%rdx), %rdx
	movq	%rdx, (%rax)
	.loc 1 135 0
	movq	d(%rip), %rax
	movq	(%rax), %rax
	movq	%rax, tmp(%rip)
	movq	d(%rip), %rax
	movq	d(%rip), %rdx
	movq	8(%rdx), %rdx
	movq	%rdx, (%rax)
	movq	d(%rip), %rax
	leaq	8(%rax), %rdx
	movq	tmp(%rip), %rax
	movq	%rax, (%rdx)
	.loc 1 136 0
	movq	c(%rip), %rax
	movq	(%rax), %rdx
	addq	$8, %rax
	movq	%rax, c(%rip)
	movq	%rdx, %rax
	jmp	.L15
.L41:
	.loc 1 141 0
	movq	d(%rip), %rax
	leaq	8(%rax), %rdx
	movq	d(%rip), %rax
	addq	$8, %rax
	movsd	(%rax), %xmm1
	movq	d(%rip), %rax
	movsd	(%rax), %xmm0
	mulsd	%xmm1, %xmm0
	movsd	%xmm0, (%rdx)
	movq	d(%rip), %rax
	addq	$8, %rax
	movq	%rax, d(%rip)
	.loc 1 142 0
	movq	d(%rip), %rax
	subq	$8, %rax
	movq	%rax, d(%rip)
	movq	d(%rip), %rax
	movq	d(%rip), %rdx
	movq	8(%rdx), %rdx
	movq	%rdx, (%rax)
	.loc 1 143 0
	movq	d(%rip), %rax
	leaq	8(%rax), %rdx
	movq	d(%rip), %rax
	addq	$8, %rax
	movsd	(%rax), %xmm1
	movq	d(%rip), %rax
	movsd	(%rax), %xmm0
	addsd	%xmm1, %xmm0
	movsd	%xmm0, (%rdx)
	movq	d(%rip), %rax
	addq	$8, %rax
	movq	%rax, d(%rip)
	.loc 1 145 0
	movq	d(%rip), %rax
	subq	$8, %rax
	movq	%rax, d(%rip)
	movq	d(%rip), %rax
	movq	$1, (%rax)
	.loc 1 146 0
	movq	d(%rip), %rax
	movq	d(%rip), %rcx
	movq	d(%rip), %rdx
	movq	(%rdx), %rdx
	addq	$1, %rdx
	salq	$3, %rdx
	addq	%rcx, %rdx
	movq	(%rdx), %rdx
	movq	%rdx, (%rax)
	.loc 1 147 0
	movq	d(%rip), %rax
	leaq	8(%rax), %rdx
	movq	d(%rip), %rax
	addq	$8, %rax
	movsd	(%rax), %xmm1
	movq	d(%rip), %rax
	movsd	(%rax), %xmm0
	addsd	%xmm1, %xmm0
	movsd	%xmm0, (%rdx)
	movq	d(%rip), %rax
	addq	$8, %rax
	movq	%rax, d(%rip)
	.loc 1 148 0
	movq	c(%rip), %rax
	movq	(%rax), %rdx
	addq	$8, %rax
	movq	%rax, c(%rip)
	movq	%rdx, %rax
	jmp	.L15
.L26:
	.loc 1 153 0
	movq	d(%rip), %rax
	subq	$8, %rax
	movq	%rax, d(%rip)
	movq	d(%rip), %rax
	movq	$0, (%rax)
	.loc 1 154 0
	movq	d(%rip), %rcx
	movq	d(%rip), %rax
	movq	(%rax), %rdx
	movq	%rdx, %rax
	salq	$2, %rax
	addq	%rdx, %rax
	addq	%rax, %rax
	movq	%rax, (%rcx)
	movq	d(%rip), %rax
	movq	d(%rip), %rdx
	movq	(%rdx), %rdx
	addq	$6, %rdx
	movq	%rdx, (%rax)
	.loc 1 155 0
	movq	d(%rip), %rdx
	movq	d(%rip), %rax
	movq	(%rax), %rax
	addq	$1, %rax
	salq	$3, %rax
	addq	%rdx, %rax
	movq	%rax, d(%rip)
	.loc 1 156 0
	movq	d(%rip), %rax
	subq	$8, %rax
	movq	%rax, d(%rip)
	movq	d(%rip), %rax
	movq	$0, (%rax)
	.loc 1 157 0
	movq	c(%rip), %rax
	movq	(%rax), %rdx
	addq	$8, %rax
	movq	%rax, c(%rip)
	movq	%rdx, %rax
	jmp	.L15
.L43:
	.loc 1 162 0
	movq	d(%rip), %rax
	addq	$8, %rax
	movq	%rax, d(%rip)
	.loc 1 164 0
	movq	d(%rip), %rax
	subq	$8, %rax
	movq	%rax, d(%rip)
	movq	d(%rip), %rax
	movq	$0, (%rax)
	.loc 1 165 0
	movq	d(%rip), %rcx
	movq	d(%rip), %rax
	movq	(%rax), %rdx
	movq	%rdx, %rax
	salq	$2, %rax
	addq	%rdx, %rax
	addq	%rax, %rax
	movq	%rax, (%rcx)
	movq	d(%rip), %rax
	movq	d(%rip), %rdx
	movq	(%rdx), %rdx
	addq	$1, %rdx
	movq	%rdx, (%rax)
	.loc 1 166 0
	movq	d(%rip), %rcx
	movq	d(%rip), %rax
	movq	(%rax), %rdx
	movq	%rdx, %rax
	salq	$2, %rax
	addq	%rdx, %rax
	addq	%rax, %rax
	movq	%rax, (%rcx)
	movq	d(%rip), %rax
	movq	d(%rip), %rdx
	movq	(%rdx), %rdx
	movq	%rdx, (%rax)
	.loc 1 167 0
	movq	d(%rip), %rax
	subq	$8, %rax
	movq	%rax, d(%rip)
	movq	d(%rip), %rax
	movq	$1, (%rax)
	.loc 1 168 0
	movq	d(%rip), %rax
	movq	d(%rip), %rdx
	movq	(%rdx), %rdx
	negq	%rdx
	movq	%rdx, (%rax)
	.loc 1 169 0
	movq	c(%rip), %rax
	subq	$8, %rax
	movq	%rax, c(%rip)
	movq	c(%rip), %rax
	movl	$.L44, %edx
	movq	%rdx, (%rax)
	movq	d(%rip), %rax
	movq	(%rax), %rdx
	salq	$3, %rdx
	addq	-40(%rbp), %rdx
	movq	(%rdx), %rdx
	addq	$8, %rax
	movq	%rax, d(%rip)
	movq	%rdx, %rax
	jmp	.L15
.L44:
	.loc 1 171 0
	movq	d(%rip), %rax
	subq	$8, %rax
	movq	%rax, d(%rip)
	movq	d(%rip), %rax
	movq	$1, (%rax)
	.loc 1 172 0
	movq	d(%rip), %rax
	movq	d(%rip), %rdx
	movq	(%rdx), %rdx
	negq	%rdx
	movq	%rdx, (%rax)
	.loc 1 173 0
	movq	d(%rip), %rax
	movq	d(%rip), %rdx
	movq	(%rdx), %rdx
	cvtsi2sdq	%rdx, %xmm0
	movsd	%xmm0, (%rax)
	.loc 1 175 0
	movq	d(%rip), %rax
	subq	$8, %rax
	movq	%rax, d(%rip)
	movq	d(%rip), %rax
	movl	$.L45, %edx
	movq	%rdx, (%rax)
	.loc 1 177 0
	movq	d(%rip), %rax
	subq	$8, %rax
	movq	%rax, d(%rip)
	movq	d(%rip), %rax
	movq	$3, (%rax)
	.loc 1 178 0
	movq	c(%rip), %rax
	subq	$8, %rax
	movq	%rax, c(%rip)
	movq	c(%rip), %rax
	movl	$.L46, %edx
	movq	%rdx, (%rax)
	movq	d(%rip), %rax
	movq	(%rax), %rdx
	salq	$3, %rdx
	addq	-40(%rbp), %rdx
	movq	(%rdx), %rdx
	addq	$8, %rax
	movq	%rax, d(%rip)
	movq	%rdx, %rax
	jmp	.L15
.L46:
	.loc 1 179 0
	movq	D(%rip), %rdx
	movq	d(%rip), %rax
	movq	(%rax), %rcx
	movq	%rcx, (%rdx)
	addq	$8, %rdx
	movq	%rdx, D(%rip)
	addq	$8, %rax
	movq	%rax, d(%rip)
	movq	D(%rip), %rdx
	movq	d(%rip), %rax
	movq	(%rax), %rcx
	movq	%rcx, (%rdx)
	addq	$8, %rdx
	movq	%rdx, D(%rip)
	addq	$8, %rax
	movq	%rax, d(%rip)
	movq	D(%rip), %rax
	movq	$0, (%rax)
	addq	$8, %rax
	movq	%rax, D(%rip)
	jmp	.L47
.L49:
	.loc 1 179 0 is_stmt 0 discriminator 2
	movq	c(%rip), %rax
	subq	$8, %rax
	movq	%rax, c(%rip)
	movq	c(%rip), %rax
	movl	$.L48, %edx
	movq	%rdx, (%rax)
	movq	d(%rip), %rax
	subq	$8, %rax
	movq	%rax, d(%rip)
	movq	d(%rip), %rax
	movq	D(%rip), %rdx
	movq	-8(%rdx), %rdx
	movq	%rdx, (%rax)
	movq	D(%rip), %rax
	subq	$16, %rax
	movq	(%rax), %rax
	jmp	.L15
.L48:
	.loc 1 179 0
	movq	D(%rip), %rax
	subq	$8, %rax
	movq	(%rax), %rdx
	addq	$1, %rdx
	movq	%rdx, (%rax)
.L47:
	.loc 1 179 0 discriminator 1
	movq	D(%rip), %rax
	subq	$8, %rax
	movq	(%rax), %rdx
	movq	D(%rip), %rax
	subq	$24, %rax
	movq	(%rax), %rax
	cmpq	%rax, %rdx
	jl	.L49
	.loc 1 179 0 discriminator 3
	movq	D(%rip), %rax
	subq	$24, %rax
	movq	%rax, D(%rip)
	.loc 1 181 0 is_stmt 1 discriminator 3
	movq	d(%rip), %rax
	addq	$8, %rax
	movq	%rax, d(%rip)
	.loc 1 183 0 discriminator 3
	movq	d(%rip), %rax
	subq	$8, %rax
	movq	%rax, d(%rip)
	movq	d(%rip), %rax
	movq	$3, (%rax)
	.loc 1 184 0 discriminator 3
	movq	d(%rip), %rax
	movq	d(%rip), %rdx
	movq	(%rdx), %rdx
	cvtsi2sdq	%rdx, %xmm0
	movsd	%xmm0, (%rax)
	.loc 1 185 0 discriminator 3
	movq	d(%rip), %rax
	subq	$8, %rax
	movq	%rax, d(%rip)
	movq	d(%rip), %rax
	movq	$0, (%rax)
	.loc 1 186 0 discriminator 3
	movq	d(%rip), %rcx
	movq	d(%rip), %rax
	movq	(%rax), %rdx
	movq	%rdx, %rax
	salq	$2, %rax
	addq	%rdx, %rax
	addq	%rax, %rax
	movq	%rax, (%rcx)
	movq	d(%rip), %rax
	movq	d(%rip), %rdx
	movq	(%rdx), %rdx
	addq	$4, %rdx
	movq	%rdx, (%rax)
	.loc 1 187 0 discriminator 3
	movq	c(%rip), %rax
	subq	$8, %rax
	movq	%rax, c(%rip)
	movq	c(%rip), %rax
	movl	$.L50, %edx
	movq	%rdx, (%rax)
	movq	d(%rip), %rax
	movq	(%rax), %rdx
	salq	$3, %rdx
	addq	-40(%rbp), %rdx
	movq	(%rdx), %rdx
	addq	$8, %rax
	movq	%rax, d(%rip)
	movq	%rdx, %rax
	jmp	.L15
.L50:
	.loc 1 188 0
	movq	d(%rip), %rax
	movq	d(%rip), %rdx
	movq	(%rdx), %rdx
	cvtsi2sdq	%rdx, %xmm0
	movsd	%xmm0, (%rax)
	.loc 1 189 0
	movq	d(%rip), %rax
	leaq	8(%rax), %rdx
	movq	d(%rip), %rax
	addq	$8, %rax
	movsd	(%rax), %xmm0
	movq	d(%rip), %rax
	movsd	(%rax), %xmm1
	divsd	%xmm1, %xmm0
	movsd	%xmm0, (%rdx)
	movq	d(%rip), %rax
	addq	$8, %rax
	movq	%rax, d(%rip)
	.loc 1 190 0
	movq	d(%rip), %rax
	leaq	8(%rax), %rdx
	movq	d(%rip), %rax
	addq	$8, %rax
	movsd	(%rax), %xmm1
	movq	d(%rip), %rax
	movsd	(%rax), %xmm0
	addsd	%xmm1, %xmm0
	movsd	%xmm0, (%rdx)
	movq	d(%rip), %rax
	addq	$8, %rax
	movq	%rax, d(%rip)
	.loc 1 191 0
	movq	c(%rip), %rax
	movq	(%rax), %rdx
	addq	$8, %rax
	movq	%rax, c(%rip)
	movq	%rdx, %rax
	jmp	.L15
.L45:
	.loc 1 196 0
	movq	d(%rip), %rax
	addq	$8, %rax
	movq	%rax, d(%rip)
	.loc 1 198 0
	movq	d(%rip), %rax
	subq	$8, %rax
	movq	%rax, d(%rip)
	movq	d(%rip), %rax
	movq	$1, (%rax)
	.loc 1 199 0
	movq	d(%rip), %rax
	movq	d(%rip), %rcx
	movq	d(%rip), %rdx
	movq	(%rdx), %rdx
	addq	$1, %rdx
	salq	$3, %rdx
	addq	%rcx, %rdx
	movq	(%rdx), %rdx
	movq	%rdx, (%rax)
	.loc 1 200 0
	movq	d(%rip), %rax
	subq	$8, %rax
	movq	%rax, d(%rip)
	movq	d(%rip), %rax
	movq	$1, (%rax)
	.loc 1 201 0
	movq	d(%rip), %rax
	movq	d(%rip), %rcx
	movq	d(%rip), %rdx
	movq	(%rdx), %rdx
	addq	$1, %rdx
	salq	$3, %rdx
	addq	%rcx, %rdx
	movq	(%rdx), %rdx
	movq	%rdx, (%rax)
	.loc 1 203 0
	movq	d(%rip), %rax
	subq	$8, %rax
	movq	%rax, d(%rip)
	movq	d(%rip), %rax
	movq	$0, (%rax)
	.loc 1 204 0
	movq	c(%rip), %rax
	subq	$8, %rax
	movq	%rax, c(%rip)
	movq	c(%rip), %rax
	movl	$.L51, %edx
	movq	%rdx, (%rax)
	movq	d(%rip), %rax
	movq	(%rax), %rdx
	salq	$3, %rdx
	addq	-40(%rbp), %rdx
	movq	(%rdx), %rdx
	addq	$8, %rax
	movq	%rax, d(%rip)
	movq	%rdx, %rax
	jmp	.L15
.L51:
	.loc 1 206 0
	movq	d(%rip), %rax
	subq	$8, %rax
	movq	%rax, d(%rip)
	movq	d(%rip), %rax
	movq	$0, (%rax)
	.loc 1 207 0
	movq	d(%rip), %rcx
	movq	d(%rip), %rax
	movq	(%rax), %rdx
	movq	%rdx, %rax
	salq	$2, %rax
	addq	%rdx, %rax
	addq	%rax, %rax
	movq	%rax, (%rcx)
	movq	d(%rip), %rax
	movq	d(%rip), %rdx
	movq	(%rdx), %rdx
	addq	$5, %rdx
	movq	%rdx, (%rax)
	.loc 1 208 0
	movq	c(%rip), %rax
	subq	$8, %rax
	movq	%rax, c(%rip)
	movq	c(%rip), %rax
	movl	$.L52, %edx
	movq	%rdx, (%rax)
	movq	d(%rip), %rax
	movq	(%rax), %rdx
	salq	$3, %rdx
	addq	-40(%rbp), %rdx
	movq	(%rdx), %rdx
	addq	$8, %rax
	movq	%rax, d(%rip)
	movq	%rdx, %rax
	jmp	.L15
.L52:
	.loc 1 209 0
	movq	d(%rip), %rax
	leaq	8(%rax), %rdx
	movq	d(%rip), %rax
	addq	$8, %rax
	movq	(%rax), %rcx
	movq	d(%rip), %rax
	movq	(%rax), %rax
	andq	%rcx, %rax
	movq	%rax, (%rdx)
	movq	d(%rip), %rax
	addq	$8, %rax
	movq	%rax, d(%rip)
	.loc 1 211 0
	movq	d(%rip), %rax
	subq	$8, %rax
	movq	%rax, d(%rip)
	movq	d(%rip), %rax
	movq	$0, (%rax)
	.loc 1 212 0
	movq	d(%rip), %rcx
	movq	d(%rip), %rax
	movq	(%rax), %rdx
	movq	%rdx, %rax
	salq	$2, %rax
	addq	%rdx, %rax
	addq	%rax, %rax
	movq	%rax, (%rcx)
	movq	d(%rip), %rax
	movq	d(%rip), %rdx
	movq	(%rdx), %rdx
	addq	$1, %rdx
	movq	%rdx, (%rax)
	.loc 1 213 0
	movq	d(%rip), %rcx
	movq	d(%rip), %rax
	movq	(%rax), %rdx
	movq	%rdx, %rax
	salq	$2, %rax
	addq	%rdx, %rax
	addq	%rax, %rax
	movq	%rax, (%rcx)
	movq	d(%rip), %rax
	movq	d(%rip), %rdx
	movq	(%rdx), %rdx
	movq	%rdx, (%rax)
	.loc 1 214 0
	movq	d(%rip), %rcx
	movq	d(%rip), %rax
	movq	(%rax), %rdx
	movq	%rdx, %rax
	salq	$2, %rax
	addq	%rdx, %rax
	addq	%rax, %rax
	movq	%rax, (%rcx)
	movq	d(%rip), %rax
	movq	d(%rip), %rdx
	movq	(%rdx), %rdx
	addq	$1, %rdx
	movq	%rdx, (%rax)
	.loc 1 215 0
	movq	d(%rip), %rax
	movq	d(%rip), %rdx
	movq	(%rdx), %rdx
	negq	%rdx
	movq	%rdx, (%rax)
	.loc 1 216 0
	movq	c(%rip), %rax
	subq	$8, %rax
	movq	%rax, c(%rip)
	movq	c(%rip), %rax
	movl	$.L53, %edx
	movq	%rdx, (%rax)
	movq	d(%rip), %rax
	movq	(%rax), %rdx
	salq	$3, %rdx
	addq	-40(%rbp), %rdx
	movq	(%rdx), %rdx
	addq	$8, %rax
	movq	%rax, d(%rip)
	movq	%rdx, %rax
	jmp	.L15
.L53:
	.loc 1 218 0
	movq	d(%rip), %rax
	subq	$8, %rax
	movq	%rax, d(%rip)
	movq	d(%rip), %rax
	movq	$0, (%rax)
	.loc 1 219 0
	movq	d(%rip), %rcx
	movq	d(%rip), %rax
	movq	(%rax), %rdx
	movq	%rdx, %rax
	salq	$2, %rax
	addq	%rdx, %rax
	addq	%rax, %rax
	movq	%rax, (%rcx)
	movq	d(%rip), %rax
	movq	d(%rip), %rdx
	movq	(%rdx), %rdx
	addq	$3, %rdx
	movq	%rdx, (%rax)
	.loc 1 220 0
	movq	d(%rip), %rcx
	movq	d(%rip), %rax
	movq	(%rax), %rdx
	movq	%rdx, %rax
	salq	$2, %rax
	addq	%rdx, %rax
	addq	%rax, %rax
	movq	%rax, (%rcx)
	movq	d(%rip), %rax
	movq	d(%rip), %rdx
	movq	(%rdx), %rdx
	addq	$2, %rdx
	movq	%rdx, (%rax)
	.loc 1 221 0
	movq	d(%rip), %rax
	subq	$8, %rax
	movq	%rax, d(%rip)
	movq	d(%rip), %rax
	movq	$1, (%rax)
	.loc 1 222 0
	movq	d(%rip), %rax
	movq	d(%rip), %rdx
	movq	(%rdx), %rdx
	negq	%rdx
	movq	%rdx, (%rax)
	.loc 1 223 0
	movq	c(%rip), %rax
	subq	$8, %rax
	movq	%rax, c(%rip)
	movq	c(%rip), %rax
	movl	$.L54, %edx
	movq	%rdx, (%rax)
	movq	d(%rip), %rax
	movq	(%rax), %rdx
	salq	$3, %rdx
	addq	-40(%rbp), %rdx
	movq	(%rdx), %rdx
	addq	$8, %rax
	movq	%rax, d(%rip)
	movq	%rdx, %rax
	jmp	.L15
.L54:
	.loc 1 225 0
	movq	d(%rip), %rax
	subq	$8, %rax
	movq	%rax, d(%rip)
	movq	d(%rip), %rax
	movq	$2, (%rax)
	.loc 1 226 0
	movq	d(%rip), %rax
	movq	d(%rip), %rdx
	movq	(%rdx), %rdx
	cvtsi2sdq	%rdx, %xmm0
	movsd	%xmm0, (%rax)
	.loc 1 227 0
	movq	d(%rip), %rax
	subq	$8, %rax
	movq	%rax, d(%rip)
	movq	d(%rip), %rax
	movq	$3, (%rax)
	.loc 1 228 0
	movq	c(%rip), %rax
	subq	$8, %rax
	movq	%rax, c(%rip)
	movq	c(%rip), %rax
	movl	$.L55, %edx
	movq	%rdx, (%rax)
	movq	d(%rip), %rax
	movq	(%rax), %rdx
	salq	$3, %rdx
	addq	-40(%rbp), %rdx
	movq	(%rdx), %rdx
	addq	$8, %rax
	movq	%rax, d(%rip)
	movq	%rdx, %rax
	jmp	.L15
.L55:
	.loc 1 229 0
	movq	d(%rip), %rax
	movq	d(%rip), %rdx
	movq	(%rdx), %rdx
	cvtsi2sdq	%rdx, %xmm0
	movsd	%xmm0, (%rax)
	.loc 1 230 0
	movq	d(%rip), %rax
	leaq	8(%rax), %rdx
	movq	d(%rip), %rax
	addq	$8, %rax
	movsd	(%rax), %xmm0
	movq	d(%rip), %rax
	movsd	(%rax), %xmm1
	divsd	%xmm1, %xmm0
	movsd	%xmm0, (%rdx)
	movq	d(%rip), %rax
	addq	$8, %rax
	movq	%rax, d(%rip)
	.loc 1 231 0
	movq	d(%rip), %rax
	leaq	8(%rax), %rdx
	movq	d(%rip), %rax
	addq	$8, %rax
	movsd	(%rax), %xmm1
	movq	d(%rip), %rax
	movsd	(%rax), %xmm0
	addsd	%xmm1, %xmm0
	movsd	%xmm0, (%rdx)
	movq	d(%rip), %rax
	addq	$8, %rax
	movq	%rax, d(%rip)
	.loc 1 232 0
	movq	c(%rip), %rax
	movq	(%rax), %rdx
	addq	$8, %rax
	movq	%rax, c(%rip)
	movq	%rdx, %rax
	jmp	.L15
.L8:
	.loc 1 237 0
	movq	d(%rip), %rax
	subq	$8, %rax
	movq	%rax, d(%rip)
	movq	d(%rip), %rax
	movq	$0, (%rax)
	.loc 1 238 0
	movq	d(%rip), %rcx
	movq	d(%rip), %rax
	movq	(%rax), %rdx
	movq	%rdx, %rax
	salq	$2, %rax
	addq	%rdx, %rax
	addq	%rax, %rax
	movq	%rax, (%rcx)
	movq	d(%rip), %rax
	movq	d(%rip), %rdx
	movq	(%rdx), %rdx
	addq	$6, %rdx
	movq	%rdx, (%rax)
	.loc 1 239 0
	movq	d(%rip), %rcx
	movq	d(%rip), %rax
	movq	(%rax), %rdx
	movq	%rdx, %rax
	salq	$2, %rax
	addq	%rdx, %rax
	addq	%rax, %rax
	movq	%rax, (%rcx)
	movq	d(%rip), %rax
	movq	d(%rip), %rdx
	movq	(%rdx), %rdx
	addq	$5, %rdx
	movq	%rdx, (%rax)
	.loc 1 240 0
	movq	d(%rip), %rax
	subq	$8, %rax
	movq	%rax, d(%rip)
	movq	d(%rip), %rax
	movq	$0, (%rax)
	.loc 1 241 0
	movq	d(%rip), %rcx
	movq	d(%rip), %rax
	movq	(%rax), %rdx
	movq	%rdx, %rax
	salq	$2, %rax
	addq	%rdx, %rax
	addq	%rax, %rax
	movq	%rax, (%rcx)
	movq	d(%rip), %rax
	movq	d(%rip), %rdx
	movq	(%rdx), %rdx
	addq	$1, %rdx
	movq	%rdx, (%rax)
	.loc 1 242 0
	movq	d(%rip), %rcx
	movq	d(%rip), %rax
	movq	(%rax), %rdx
	movq	%rdx, %rax
	salq	$2, %rax
	addq	%rdx, %rax
	addq	%rax, %rax
	movq	%rax, (%rcx)
	movq	d(%rip), %rax
	movq	d(%rip), %rdx
	movq	(%rdx), %rdx
	addq	$5, %rdx
	movq	%rdx, (%rax)
	.loc 1 243 0
	movq	d(%rip), %rax
	leaq	8(%rax), %rdx
	movq	d(%rip), %rax
	addq	$8, %rax
	movq	(%rax), %rcx
	movq	d(%rip), %rax
	movq	(%rax), %rax
	addq	%rcx, %rax
	movq	%rax, (%rdx)
	movq	d(%rip), %rax
	addq	$8, %rax
	movq	%rax, d(%rip)
	.loc 1 244 0
	movq	d(%rip), %rax
	subq	$8, %rax
	movq	%rax, d(%rip)
	movq	d(%rip), %rax
	movq	$1, (%rax)
	.loc 1 245 0
	movq	d(%rip), %rax
	movq	d(%rip), %rdx
	movq	(%rdx), %rdx
	negq	%rdx
	movq	%rdx, (%rax)
	.loc 1 246 0
	movq	c(%rip), %rax
	subq	$8, %rax
	movq	%rax, c(%rip)
	movq	c(%rip), %rax
	movl	$.L56, %edx
	movq	%rdx, (%rax)
	movq	d(%rip), %rax
	movq	(%rax), %rdx
	salq	$3, %rdx
	addq	-40(%rbp), %rdx
	movq	(%rdx), %rdx
	addq	$8, %rax
	movq	%rax, d(%rip)
	movq	%rdx, %rax
	jmp	.L15
.L56:
	.loc 1 248 0
	movq	d(%rip), %rax
	subq	$8, %rax
	movq	%rax, d(%rip)
	movq	d(%rip), %rax
	movq	$0, (%rax)
	.loc 1 249 0
	movq	d(%rip), %rcx
	movq	d(%rip), %rax
	movq	(%rax), %rdx
	movq	%rdx, %rax
	salq	$2, %rax
	addq	%rdx, %rax
	addq	%rax, %rax
	movq	%rax, (%rcx)
	movq	d(%rip), %rax
	movq	d(%rip), %rdx
	movq	(%rdx), %rdx
	addq	$5, %rdx
	movq	%rdx, (%rax)
	.loc 1 250 0
	movq	d(%rip), %rcx
	movq	d(%rip), %rax
	movq	(%rax), %rdx
	movq	%rdx, %rax
	salq	$2, %rax
	addq	%rdx, %rax
	addq	%rax, %rax
	movq	%rax, (%rcx)
	movq	d(%rip), %rax
	movq	d(%rip), %rdx
	movq	(%rdx), %rdx
	movq	%rdx, (%rax)
	.loc 1 251 0
	movq	d(%rip), %rax
	subq	$8, %rax
	movq	%rax, d(%rip)
	movq	d(%rip), %rax
	movq	$1, (%rax)
	.loc 1 252 0
	movq	d(%rip), %rax
	movq	d(%rip), %rdx
	movq	(%rdx), %rdx
	negq	%rdx
	movq	%rdx, (%rax)
	.loc 1 253 0
	movq	c(%rip), %rax
	subq	$8, %rax
	movq	%rax, c(%rip)
	movq	c(%rip), %rax
	movl	$.L57, %edx
	movq	%rdx, (%rax)
	movq	d(%rip), %rax
	movq	(%rax), %rdx
	salq	$3, %rdx
	addq	-40(%rbp), %rdx
	movq	(%rdx), %rdx
	addq	$8, %rax
	movq	%rax, d(%rip)
	movq	%rdx, %rax
	jmp	.L15
.L57:
	.loc 1 255 0
	movq	d(%rip), %rax
	subq	$8, %rax
	movq	%rax, d(%rip)
	movq	d(%rip), %rax
	movq	$0, (%rax)
	.loc 1 256 0
	movq	d(%rip), %rcx
	movq	d(%rip), %rax
	movq	(%rax), %rdx
	movq	%rdx, %rax
	salq	$2, %rax
	addq	%rdx, %rax
	addq	%rax, %rax
	movq	%rax, (%rcx)
	movq	d(%rip), %rax
	movq	d(%rip), %rdx
	movq	(%rdx), %rdx
	addq	$1, %rdx
	movq	%rdx, (%rax)
	.loc 1 257 0
	movq	d(%rip), %rcx
	movq	d(%rip), %rax
	movq	(%rax), %rdx
	movq	%rdx, %rax
	salq	$2, %rax
	addq	%rdx, %rax
	addq	%rax, %rax
	movq	%rax, (%rcx)
	movq	d(%rip), %rax
	movq	d(%rip), %rdx
	movq	(%rdx), %rdx
	movq	%rdx, (%rax)
	.loc 1 258 0
	movq	d(%rip), %rax
	subq	$8, %rax
	movq	%rax, d(%rip)
	movq	d(%rip), %rax
	movq	$1, (%rax)
	.loc 1 259 0
	movq	d(%rip), %rax
	movq	d(%rip), %rdx
	movq	(%rdx), %rdx
	negq	%rdx
	movq	%rdx, (%rax)
	.loc 1 260 0
	movq	c(%rip), %rax
	subq	$8, %rax
	movq	%rax, c(%rip)
	movq	c(%rip), %rax
	movl	$.L58, %edx
	movq	%rdx, (%rax)
	movq	d(%rip), %rax
	movq	(%rax), %rdx
	salq	$3, %rdx
	addq	-40(%rbp), %rdx
	movq	(%rdx), %rdx
	addq	$8, %rax
	movq	%rax, d(%rip)
	movq	%rdx, %rax
	jmp	.L15
.L58:
	.loc 1 262 0
	movq	d(%rip), %rax
	subq	$8, %rax
	movq	%rax, d(%rip)
	movq	d(%rip), %rax
	movq	$0, (%rax)
	.loc 1 263 0
	movq	d(%rip), %rcx
	movq	d(%rip), %rax
	movq	(%rax), %rdx
	movq	%rdx, %rax
	salq	$2, %rax
	addq	%rdx, %rax
	addq	%rax, %rax
	movq	%rax, (%rcx)
	movq	d(%rip), %rax
	movq	d(%rip), %rdx
	movq	(%rdx), %rdx
	addq	$1, %rdx
	movq	%rdx, (%rax)
	.loc 1 264 0
	movq	d(%rip), %rcx
	movq	d(%rip), %rax
	movq	(%rax), %rdx
	movq	%rdx, %rax
	salq	$2, %rax
	addq	%rdx, %rax
	addq	%rax, %rax
	movq	%rax, (%rcx)
	movq	d(%rip), %rax
	movq	d(%rip), %rdx
	movq	(%rdx), %rdx
	movq	%rdx, (%rax)
	.loc 1 265 0
	movq	d(%rip), %rax
	subq	$8, %rax
	movq	%rax, d(%rip)
	movq	d(%rip), %rax
	movq	$1, (%rax)
	.loc 1 266 0
	movq	d(%rip), %rax
	movq	d(%rip), %rdx
	movq	(%rdx), %rdx
	negq	%rdx
	movq	%rdx, (%rax)
	.loc 1 267 0
	movq	c(%rip), %rax
	subq	$8, %rax
	movq	%rax, c(%rip)
	movq	c(%rip), %rax
	movl	$.L59, %edx
	movq	%rdx, (%rax)
	movq	d(%rip), %rax
	movq	(%rax), %rdx
	salq	$3, %rdx
	addq	-40(%rbp), %rdx
	movq	(%rdx), %rdx
	addq	$8, %rax
	movq	%rax, d(%rip)
	movq	%rdx, %rax
	jmp	.L15
.L59:
	.loc 1 269 0
	movq	d(%rip), %rax
	subq	$8, %rax
	movq	%rax, d(%rip)
	movq	d(%rip), %rax
	movq	$3, (%rax)
	.loc 1 270 0
	movq	c(%rip), %rax
	subq	$8, %rax
	movq	%rax, c(%rip)
	movq	c(%rip), %rax
	movl	$.L60, %edx
	movq	%rdx, (%rax)
	movq	d(%rip), %rax
	movq	(%rax), %rdx
	salq	$3, %rdx
	addq	-40(%rbp), %rdx
	movq	(%rdx), %rdx
	addq	$8, %rax
	movq	%rax, d(%rip)
	movq	%rdx, %rax
	jmp	.L15
.L60:
	.loc 1 271 0
	movq	d(%rip), %rax
	subq	$8, %rax
	movq	%rax, d(%rip)
	movq	d(%rip), %rax
	movq	$0, (%rax)
	.loc 1 272 0
	movq	d(%rip), %rcx
	movq	d(%rip), %rax
	movq	(%rax), %rdx
	movq	%rdx, %rax
	salq	$2, %rax
	addq	%rdx, %rax
	addq	%rax, %rax
	movq	%rax, (%rcx)
	movq	d(%rip), %rax
	movq	d(%rip), %rdx
	movq	(%rdx), %rdx
	addq	$1, %rdx
	movq	%rdx, (%rax)
	.loc 1 273 0
	movq	d(%rip), %rcx
	movq	d(%rip), %rax
	movq	(%rax), %rdx
	movq	%rdx, %rax
	salq	$2, %rax
	addq	%rdx, %rax
	addq	%rax, %rax
	movq	%rax, (%rcx)
	movq	d(%rip), %rax
	movq	d(%rip), %rdx
	movq	(%rdx), %rdx
	movq	%rdx, (%rax)
	.loc 1 274 0
	movq	d(%rip), %rcx
	movq	d(%rip), %rax
	movq	(%rax), %rdx
	movq	%rdx, %rax
	salq	$2, %rax
	addq	%rdx, %rax
	addq	%rax, %rax
	movq	%rax, (%rcx)
	movq	d(%rip), %rax
	movq	d(%rip), %rdx
	movq	(%rdx), %rdx
	addq	$1, %rdx
	movq	%rdx, (%rax)
	.loc 1 275 0
	movq	d(%rip), %rax
	movq	d(%rip), %rdx
	movq	(%rdx), %rdx
	negq	%rdx
	movq	%rdx, (%rax)
	.loc 1 276 0
	movq	c(%rip), %rax
	subq	$8, %rax
	movq	%rax, c(%rip)
	movq	c(%rip), %rax
	movl	$.L61, %edx
	movq	%rdx, (%rax)
	movq	d(%rip), %rax
	movq	(%rax), %rdx
	salq	$3, %rdx
	addq	-40(%rbp), %rdx
	movq	(%rdx), %rdx
	addq	$8, %rax
	movq	%rax, d(%rip)
	movq	%rdx, %rax
	jmp	.L15
.L61:
	.loc 1 278 0
	movq	d(%rip), %rax
	subq	$8, %rax
	movq	%rax, d(%rip)
	movq	d(%rip), %rax
	movq	$0, (%rax)
	.loc 1 279 0
	movq	d(%rip), %rcx
	movq	d(%rip), %rax
	movq	(%rax), %rdx
	movq	%rdx, %rax
	salq	$2, %rax
	addq	%rdx, %rax
	addq	%rax, %rax
	movq	%rax, (%rcx)
	movq	d(%rip), %rax
	movq	d(%rip), %rdx
	movq	(%rdx), %rdx
	addq	$4, %rdx
	movq	%rdx, (%rax)
	.loc 1 280 0
	movq	c(%rip), %rax
	subq	$8, %rax
	movq	%rax, c(%rip)
	movq	c(%rip), %rax
	movl	$.L62, %edx
	movq	%rdx, (%rax)
	movq	d(%rip), %rax
	movq	(%rax), %rdx
	salq	$3, %rdx
	addq	-40(%rbp), %rdx
	movq	(%rdx), %rdx
	addq	$8, %rax
	movq	%rax, d(%rip)
	movq	%rdx, %rax
	jmp	.L15
.L62:
	.loc 1 281 0
	movq	d(%rip), %rax
	subq	$8, %rax
	movq	%rax, d(%rip)
	movq	d(%rip), %rax
	movq	$0, (%rax)
	.loc 1 282 0
	movq	d(%rip), %rcx
	movq	d(%rip), %rax
	movq	(%rax), %rdx
	movq	%rdx, %rax
	salq	$2, %rax
	addq	%rdx, %rax
	addq	%rax, %rax
	movq	%rax, (%rcx)
	movq	d(%rip), %rax
	movq	d(%rip), %rdx
	movq	(%rdx), %rdx
	addq	$1, %rdx
	movq	%rdx, (%rax)
	.loc 1 283 0
	movq	d(%rip), %rcx
	movq	d(%rip), %rax
	movq	(%rax), %rdx
	movq	%rdx, %rax
	salq	$2, %rax
	addq	%rdx, %rax
	addq	%rax, %rax
	movq	%rax, (%rcx)
	movq	d(%rip), %rax
	movq	d(%rip), %rdx
	movq	(%rdx), %rdx
	movq	%rdx, (%rax)
	.loc 1 284 0
	movq	d(%rip), %rcx
	movq	d(%rip), %rax
	movq	(%rax), %rdx
	movq	%rdx, %rax
	salq	$2, %rax
	addq	%rdx, %rax
	addq	%rax, %rax
	movq	%rax, (%rcx)
	movq	d(%rip), %rax
	movq	d(%rip), %rdx
	movq	(%rdx), %rdx
	addq	$1, %rdx
	movq	%rdx, (%rax)
	.loc 1 285 0
	movq	d(%rip), %rax
	movq	d(%rip), %rdx
	movq	(%rdx), %rdx
	negq	%rdx
	movq	%rdx, (%rax)
	.loc 1 286 0
	movq	c(%rip), %rax
	subq	$8, %rax
	movq	%rax, c(%rip)
	movq	c(%rip), %rax
	movl	$.L63, %edx
	movq	%rdx, (%rax)
	movq	d(%rip), %rax
	movq	(%rax), %rdx
	salq	$3, %rdx
	addq	-40(%rbp), %rdx
	movq	(%rdx), %rdx
	addq	$8, %rax
	movq	%rax, d(%rip)
	movq	%rdx, %rax
	jmp	.L15
.L63:
	.loc 1 288 0
	movq	d(%rip), %rax
	subq	$8, %rax
	movq	%rax, d(%rip)
	movq	d(%rip), %rax
	movq	$0, (%rax)
	.loc 1 289 0
	movq	d(%rip), %rcx
	movq	d(%rip), %rax
	movq	(%rax), %rdx
	movq	%rdx, %rax
	salq	$2, %rax
	addq	%rdx, %rax
	addq	%rax, %rax
	movq	%rax, (%rcx)
	movq	d(%rip), %rax
	movq	d(%rip), %rdx
	movq	(%rdx), %rdx
	addq	$1, %rdx
	movq	%rdx, (%rax)
	.loc 1 290 0
	movq	d(%rip), %rcx
	movq	d(%rip), %rax
	movq	(%rax), %rdx
	movq	%rdx, %rax
	salq	$2, %rax
	addq	%rdx, %rax
	addq	%rax, %rax
	movq	%rax, (%rcx)
	movq	d(%rip), %rax
	movq	d(%rip), %rdx
	movq	(%rdx), %rdx
	movq	%rdx, (%rax)
	.loc 1 291 0
	movq	d(%rip), %rax
	subq	$8, %rax
	movq	%rax, d(%rip)
	movq	d(%rip), %rax
	movq	$1, (%rax)
	.loc 1 292 0
	movq	d(%rip), %rax
	movq	d(%rip), %rdx
	movq	(%rdx), %rdx
	negq	%rdx
	movq	%rdx, (%rax)
	.loc 1 293 0
	movq	c(%rip), %rax
	subq	$8, %rax
	movq	%rax, c(%rip)
	movq	c(%rip), %rax
	movl	$.L64, %edx
	movq	%rdx, (%rax)
	movq	d(%rip), %rax
	movq	(%rax), %rdx
	salq	$3, %rdx
	addq	-40(%rbp), %rdx
	movq	(%rdx), %rdx
	addq	$8, %rax
	movq	%rax, d(%rip)
	movq	%rdx, %rax
	jmp	.L15
.L64:
	.loc 1 295 0
	movq	d(%rip), %rax
	subq	$8, %rax
	movq	%rax, d(%rip)
	movq	d(%rip), %rax
	movq	$0, (%rax)
	.loc 1 296 0
	movq	d(%rip), %rcx
	movq	d(%rip), %rax
	movq	(%rax), %rdx
	movq	%rdx, %rax
	salq	$2, %rax
	addq	%rdx, %rax
	addq	%rax, %rax
	movq	%rax, (%rcx)
	movq	d(%rip), %rax
	movq	d(%rip), %rdx
	movq	(%rdx), %rdx
	addq	$5, %rdx
	movq	%rdx, (%rax)
	.loc 1 297 0
	movq	c(%rip), %rax
	subq	$8, %rax
	movq	%rax, c(%rip)
	movq	c(%rip), %rax
	movl	$.L65, %edx
	movq	%rdx, (%rax)
	movq	d(%rip), %rax
	movq	(%rax), %rdx
	salq	$3, %rdx
	addq	-40(%rbp), %rdx
	movq	(%rdx), %rdx
	addq	$8, %rax
	movq	%rax, d(%rip)
	movq	%rdx, %rax
	jmp	.L15
.L65:
	.loc 1 298 0
	movq	d(%rip), %rax
	subq	$8, %rax
	movq	%rax, d(%rip)
	movq	d(%rip), %rax
	movq	$0, (%rax)
	.loc 1 299 0
	movq	d(%rip), %rcx
	movq	d(%rip), %rax
	movq	(%rax), %rdx
	movq	%rdx, %rax
	salq	$2, %rax
	addq	%rdx, %rax
	addq	%rax, %rax
	movq	%rax, (%rcx)
	movq	d(%rip), %rax
	movq	d(%rip), %rdx
	movq	(%rdx), %rdx
	addq	$1, %rdx
	movq	%rdx, (%rax)
	.loc 1 300 0
	movq	d(%rip), %rcx
	movq	d(%rip), %rax
	movq	(%rax), %rdx
	movq	%rdx, %rax
	salq	$2, %rax
	addq	%rdx, %rax
	addq	%rax, %rax
	movq	%rax, (%rcx)
	movq	d(%rip), %rax
	movq	d(%rip), %rdx
	movq	(%rdx), %rdx
	movq	%rdx, (%rax)
	.loc 1 301 0
	movq	d(%rip), %rcx
	movq	d(%rip), %rax
	movq	(%rax), %rdx
	movq	%rdx, %rax
	salq	$2, %rax
	addq	%rdx, %rax
	addq	%rax, %rax
	movq	%rax, (%rcx)
	movq	d(%rip), %rax
	movq	d(%rip), %rdx
	movq	(%rdx), %rdx
	addq	$1, %rdx
	movq	%rdx, (%rax)
	.loc 1 302 0
	movq	d(%rip), %rax
	movq	d(%rip), %rdx
	movq	(%rdx), %rdx
	negq	%rdx
	movq	%rdx, (%rax)
	.loc 1 303 0
	movq	c(%rip), %rax
	subq	$8, %rax
	movq	%rax, c(%rip)
	movq	c(%rip), %rax
	movl	$.L66, %edx
	movq	%rdx, (%rax)
	movq	d(%rip), %rax
	movq	(%rax), %rdx
	salq	$3, %rdx
	addq	-40(%rbp), %rdx
	movq	(%rdx), %rdx
	addq	$8, %rax
	movq	%rax, d(%rip)
	movq	%rdx, %rax
	jmp	.L15
.L66:
	.loc 1 305 0
	movq	d(%rip), %rax
	subq	$8, %rax
	movq	%rax, d(%rip)
	movq	d(%rip), %rax
	movq	$0, (%rax)
	.loc 1 306 0
	movq	d(%rip), %rcx
	movq	d(%rip), %rax
	movq	(%rax), %rdx
	movq	%rdx, %rax
	salq	$2, %rax
	addq	%rdx, %rax
	addq	%rax, %rax
	movq	%rax, (%rcx)
	movq	d(%rip), %rax
	movq	d(%rip), %rdx
	movq	(%rdx), %rdx
	addq	$1, %rdx
	movq	%rdx, (%rax)
	.loc 1 307 0
	movq	d(%rip), %rcx
	movq	d(%rip), %rax
	movq	(%rax), %rdx
	movq	%rdx, %rax
	salq	$2, %rax
	addq	%rdx, %rax
	addq	%rax, %rax
	movq	%rax, (%rcx)
	movq	d(%rip), %rax
	movq	d(%rip), %rdx
	movq	(%rdx), %rdx
	movq	%rdx, (%rax)
	.loc 1 308 0
	movq	d(%rip), %rax
	subq	$8, %rax
	movq	%rax, d(%rip)
	movq	d(%rip), %rax
	movq	$1, (%rax)
	.loc 1 309 0
	movq	d(%rip), %rax
	movq	d(%rip), %rdx
	movq	(%rdx), %rdx
	negq	%rdx
	movq	%rdx, (%rax)
	.loc 1 310 0
	movq	c(%rip), %rax
	subq	$8, %rax
	movq	%rax, c(%rip)
	movq	c(%rip), %rax
	movl	$.L67, %edx
	movq	%rdx, (%rax)
	movq	d(%rip), %rax
	movq	(%rax), %rdx
	salq	$3, %rdx
	addq	-40(%rbp), %rdx
	movq	(%rdx), %rdx
	addq	$8, %rax
	movq	%rax, d(%rip)
	movq	%rdx, %rax
	jmp	.L15
.L67:
	.loc 1 311 0
	movq	c(%rip), %rax
	movq	(%rax), %rdx
	addq	$8, %rax
	movq	%rax, c(%rip)
	movq	%rdx, %rax
	jmp	.L15
.L11:
	.loc 1 316 0
	movq	d(%rip), %rax
	subq	$8, %rax
	movq	%rax, d(%rip)
	movq	d(%rip), %rax
	movq	$0, (%rax)
	.loc 1 317 0
	movq	d(%rip), %rcx
	movq	d(%rip), %rax
	movq	(%rax), %rdx
	movq	%rdx, %rax
	salq	$2, %rax
	addq	%rdx, %rax
	addq	%rax, %rax
	movq	%rax, (%rcx)
	movq	d(%rip), %rax
	movq	d(%rip), %rdx
	movq	(%rdx), %rdx
	addq	$1, %rdx
	movq	%rdx, (%rax)
	.loc 1 318 0
	movq	d(%rip), %rcx
	movq	d(%rip), %rax
	movq	(%rax), %rdx
	movq	%rdx, %rax
	salq	$2, %rax
	addq	%rdx, %rax
	addq	%rax, %rax
	movq	%rax, (%rcx)
	movq	d(%rip), %rax
	movq	d(%rip), %rdx
	movq	(%rdx), %rdx
	addq	$4, %rdx
	movq	%rdx, (%rax)
	.loc 1 319 0
	movq	d(%rip), %rcx
	movq	d(%rip), %rax
	movq	(%rax), %rdx
	movq	%rdx, %rax
	salq	$2, %rax
	addq	%rdx, %rax
	addq	%rax, %rax
	movq	%rax, (%rcx)
	movq	d(%rip), %rax
	movq	d(%rip), %rdx
	movq	(%rdx), %rdx
	addq	$4, %rdx
	movq	%rdx, (%rax)
	.loc 1 320 0
	movq	d(%rip), %rcx
	movq	d(%rip), %rax
	movq	(%rax), %rdx
	movq	%rdx, %rax
	salq	$2, %rax
	addq	%rdx, %rax
	addq	%rax, %rax
	movq	%rax, (%rcx)
	movq	d(%rip), %rax
	movq	d(%rip), %rdx
	movq	(%rdx), %rdx
	movq	%rdx, (%rax)
	.loc 1 321 0
	movq	c(%rip), %rax
	movq	(%rax), %rdx
	addq	$8, %rax
	movq	%rax, c(%rip)
	movq	%rdx, %rax
	jmp	.L15
.L9:
	.loc 1 326 0
	movq	d(%rip), %rax
	subq	$8, %rax
	movq	%rax, d(%rip)
	movq	d(%rip), %rax
	movq	$0, (%rax)
	.loc 1 327 0
	movq	d(%rip), %rcx
	movq	d(%rip), %rax
	movq	(%rax), %rdx
	movq	%rdx, %rax
	salq	$2, %rax
	addq	%rdx, %rax
	addq	%rax, %rax
	movq	%rax, (%rcx)
	movq	d(%rip), %rax
	movq	d(%rip), %rdx
	movq	(%rdx), %rdx
	addq	$5, %rdx
	movq	%rdx, (%rax)
	.loc 1 328 0
	movq	d(%rip), %rcx
	movq	d(%rip), %rax
	movq	(%rax), %rdx
	movq	%rdx, %rax
	salq	$2, %rax
	addq	%rdx, %rax
	addq	%rax, %rax
	movq	%rax, (%rcx)
	movq	d(%rip), %rax
	movq	d(%rip), %rdx
	movq	(%rdx), %rdx
	addq	$1, %rdx
	movq	%rdx, (%rax)
	.loc 1 329 0
	movq	d(%rip), %rcx
	movq	d(%rip), %rax
	movq	(%rax), %rdx
	movq	%rdx, %rax
	salq	$2, %rax
	addq	%rdx, %rax
	addq	%rax, %rax
	movq	%rax, (%rcx)
	movq	d(%rip), %rax
	movq	d(%rip), %rdx
	movq	(%rdx), %rdx
	addq	$2, %rdx
	movq	%rdx, (%rax)
	.loc 1 330 0
	movq	c(%rip), %rax
	movq	(%rax), %rdx
	addq	$8, %rax
	movq	%rax, c(%rip)
	movq	%rdx, %rax
	jmp	.L15
.L68:
	.loc 1 338 0
	movq	d(%rip), %rax
	subq	$8, %rax
	movq	%rax, d(%rip)
	movq	d(%rip), %rax
	movq	$2, (%rax)
	.loc 1 339 0
	movq	d(%rip), %rax
	movq	d(%rip), %rdx
	movq	(%rdx), %rdx
	negq	%rdx
	movq	%rdx, (%rax)
	.loc 1 340 0
	movq	d(%rip), %rax
	movq	d(%rip), %rdx
	movq	(%rdx), %rdx
	cvtsi2sdq	%rdx, %xmm0
	movsd	%xmm0, (%rax)
	.loc 1 342 0
	movq	d(%rip), %rax
	subq	$8, %rax
	movq	%rax, d(%rip)
	movq	d(%rip), %rax
	movl	$.L43, %edx
	movq	%rdx, (%rax)
	.loc 1 344 0
	movq	d(%rip), %rax
	subq	$8, %rax
	movq	%rax, d(%rip)
	movq	d(%rip), %rax
	movq	$0, (%rax)
	.loc 1 345 0
	movq	d(%rip), %rcx
	movq	d(%rip), %rax
	movq	(%rax), %rdx
	movq	%rdx, %rax
	salq	$2, %rax
	addq	%rdx, %rax
	addq	%rax, %rax
	movq	%rax, (%rcx)
	movq	d(%rip), %rax
	movq	d(%rip), %rdx
	movq	(%rdx), %rdx
	addq	$4, %rdx
	movq	%rdx, (%rax)
	.loc 1 346 0
	movq	c(%rip), %rax
	subq	$8, %rax
	movq	%rax, c(%rip)
	movq	c(%rip), %rax
	movl	$.L69, %edx
	movq	%rdx, (%rax)
	movq	d(%rip), %rax
	movq	(%rax), %rdx
	salq	$3, %rdx
	addq	-40(%rbp), %rdx
	movq	(%rdx), %rdx
	addq	$8, %rax
	movq	%rax, d(%rip)
	movq	%rdx, %rax
	jmp	.L15
.L69:
	.loc 1 347 0
	movq	D(%rip), %rdx
	movq	d(%rip), %rax
	movq	(%rax), %rcx
	movq	%rcx, (%rdx)
	addq	$8, %rdx
	movq	%rdx, D(%rip)
	addq	$8, %rax
	movq	%rax, d(%rip)
	movq	D(%rip), %rdx
	movq	d(%rip), %rax
	movq	(%rax), %rcx
	movq	%rcx, (%rdx)
	addq	$8, %rdx
	movq	%rdx, D(%rip)
	addq	$8, %rax
	movq	%rax, d(%rip)
	movq	D(%rip), %rax
	movq	$0, (%rax)
	addq	$8, %rax
	movq	%rax, D(%rip)
	jmp	.L70
.L72:
	.loc 1 347 0 is_stmt 0 discriminator 2
	movq	c(%rip), %rax
	subq	$8, %rax
	movq	%rax, c(%rip)
	movq	c(%rip), %rax
	movl	$.L71, %edx
	movq	%rdx, (%rax)
	movq	d(%rip), %rax
	subq	$8, %rax
	movq	%rax, d(%rip)
	movq	d(%rip), %rax
	movq	D(%rip), %rdx
	movq	-8(%rdx), %rdx
	movq	%rdx, (%rax)
	movq	D(%rip), %rax
	subq	$16, %rax
	movq	(%rax), %rax
	jmp	.L15
.L71:
	.loc 1 347 0
	movq	D(%rip), %rax
	subq	$8, %rax
	movq	(%rax), %rdx
	addq	$1, %rdx
	movq	%rdx, (%rax)
.L70:
	.loc 1 347 0 discriminator 1
	movq	D(%rip), %rax
	subq	$8, %rax
	movq	(%rax), %rdx
	movq	D(%rip), %rax
	subq	$24, %rax
	movq	(%rax), %rax
	cmpq	%rax, %rdx
	jl	.L72
	.loc 1 347 0 discriminator 3
	movq	D(%rip), %rax
	subq	$24, %rax
	movq	%rax, D(%rip)
	.loc 1 349 0 is_stmt 1 discriminator 3
	movq	d(%rip), %rax
	addq	$8, %rax
	movq	%rax, d(%rip)
	.loc 1 350 0 discriminator 3
	movq	d(%rip), %rax
	subq	$8, %rax
	movq	%rax, d(%rip)
	movq	d(%rip), %rax
	movq	$0, (%rax)
	.loc 1 351 0 discriminator 3
	movq	c(%rip), %rax
	movq	(%rax), %rdx
	addq	$8, %rax
	movq	%rax, c(%rip)
	movq	%rdx, %rax
	jmp	.L15
.L12:
	.loc 1 356 0
	movq	d(%rip), %rax
	subq	$8, %rax
	movq	%rax, d(%rip)
	movq	d(%rip), %rax
	movq	$0, (%rax)
	.loc 1 357 0
	movq	d(%rip), %rcx
	movq	d(%rip), %rax
	movq	(%rax), %rdx
	movq	%rdx, %rax
	salq	$2, %rax
	addq	%rdx, %rax
	addq	%rax, %rax
	movq	%rax, (%rcx)
	movq	d(%rip), %rax
	movq	d(%rip), %rdx
	movq	(%rdx), %rdx
	addq	$1, %rdx
	movq	%rdx, (%rax)
	.loc 1 358 0
	movq	d(%rip), %rcx
	movq	d(%rip), %rax
	movq	(%rax), %rdx
	movq	%rdx, %rax
	salq	$2, %rax
	addq	%rdx, %rax
	addq	%rax, %rax
	movq	%rax, (%rcx)
	movq	d(%rip), %rax
	movq	d(%rip), %rdx
	movq	(%rdx), %rdx
	addq	$5, %rdx
	movq	%rdx, (%rax)
	.loc 1 359 0
	movq	c(%rip), %rax
	movq	(%rax), %rdx
	addq	$8, %rax
	movq	%rax, c(%rip)
	movq	%rdx, %rax
	jmp	.L15
.L7:
	.loc 1 364 0
	movq	d(%rip), %rax
	subq	$8, %rax
	movq	%rax, d(%rip)
	movq	d(%rip), %rax
	movq	$1, (%rax)
	.loc 1 365 0
	movq	d(%rip), %rax
	movq	d(%rip), %rcx
	movq	d(%rip), %rdx
	movq	(%rdx), %rdx
	addq	$1, %rdx
	salq	$3, %rdx
	addq	%rcx, %rdx
	movq	(%rdx), %rdx
	movq	%rdx, (%rax)
	.loc 1 366 0
	movq	d(%rip), %rax
	subq	$8, %rax
	movq	%rax, d(%rip)
	movq	d(%rip), %rax
	movq	$1, (%rax)
	.loc 1 367 0
	movq	d(%rip), %rax
	movq	d(%rip), %rcx
	movq	d(%rip), %rdx
	movq	(%rdx), %rdx
	addq	$1, %rdx
	salq	$3, %rdx
	addq	%rcx, %rdx
	movq	(%rdx), %rdx
	movq	%rdx, (%rax)
	.loc 1 369 0
	movq	d(%rip), %rax
	subq	$8, %rax
	movq	%rax, d(%rip)
	movq	d(%rip), %rax
	movq	$2, (%rax)
	.loc 1 370 0
	movq	c(%rip), %rax
	subq	$8, %rax
	movq	%rax, c(%rip)
	movq	c(%rip), %rax
	movl	$.L73, %edx
	movq	%rdx, (%rax)
	movq	d(%rip), %rax
	movq	(%rax), %rdx
	salq	$3, %rdx
	addq	-40(%rbp), %rdx
	movq	(%rdx), %rdx
	addq	$8, %rax
	movq	%rax, d(%rip)
	movq	%rdx, %rax
	jmp	.L15
.L73:
	.loc 1 372 0
	movq	d(%rip), %rax
	subq	$8, %rax
	movq	%rax, d(%rip)
	movq	d(%rip), %rax
	movl	$.L22, %edx
	movq	%rdx, (%rax)
	.loc 1 373 0
	movq	D(%rip), %rdx
	movq	d(%rip), %rax
	movq	(%rax), %rcx
	movq	%rcx, (%rdx)
	addq	$8, %rdx
	movq	%rdx, D(%rip)
	addq	$8, %rax
	movq	%rax, d(%rip)
	movq	c(%rip), %rax
	subq	$8, %rax
	movq	%rax, c(%rip)
	movq	c(%rip), %rax
	movl	$.L74, %edx
	movq	%rdx, (%rax)
.L75:
	.loc 1 373 0 is_stmt 0 discriminator 1
	movq	d(%rip), %rax
	subq	$8, %rax
	movq	%rax, d(%rip)
	movq	d(%rip), %rax
	movl	$.L75, %edx
	movq	%rdx, (%rax)
	movq	D(%rip), %rax
	subq	$8, %rax
	movq	(%rax), %rax
	jmp	.L15
.L74:
	.loc 1 373 0
	movq	D(%rip), %rax
	subq	$8, %rax
	movq	%rax, D(%rip)
	.loc 1 374 0 is_stmt 1
	movq	c(%rip), %rax
	movq	(%rax), %rdx
	addq	$8, %rax
	movq	%rax, c(%rip)
	movq	%rdx, %rax
	jmp	.L15
.L10:
	.loc 1 379 0
	movq	d(%rip), %rax
	subq	$8, %rax
	movq	%rax, d(%rip)
	movq	d(%rip), %rax
	movq	$0, (%rax)
	.loc 1 380 0
	movq	d(%rip), %rcx
	movq	d(%rip), %rax
	movq	(%rax), %rdx
	movq	%rdx, %rax
	salq	$2, %rax
	addq	%rdx, %rax
	addq	%rax, %rax
	movq	%rax, (%rcx)
	movq	d(%rip), %rax
	movq	d(%rip), %rdx
	movq	(%rdx), %rdx
	addq	$9, %rdx
	movq	%rdx, (%rax)
	.loc 1 381 0
	movq	d(%rip), %rcx
	movq	d(%rip), %rax
	movq	(%rax), %rdx
	movq	%rdx, %rax
	salq	$2, %rax
	addq	%rdx, %rax
	addq	%rax, %rax
	movq	%rax, (%rcx)
	movq	d(%rip), %rax
	movq	d(%rip), %rdx
	movq	(%rdx), %rdx
	addq	$6, %rdx
	movq	%rdx, (%rax)
	.loc 1 382 0
	movq	d(%rip), %rcx
	movq	d(%rip), %rax
	movq	(%rax), %rdx
	movq	%rdx, %rax
	salq	$2, %rax
	addq	%rdx, %rax
	addq	%rax, %rax
	movq	%rax, (%rcx)
	movq	d(%rip), %rax
	movq	d(%rip), %rdx
	movq	(%rdx), %rdx
	movq	%rdx, (%rax)
	.loc 1 383 0
	movq	c(%rip), %rax
	movq	(%rax), %rdx
	addq	$8, %rax
	movq	%rax, c(%rip)
	movq	%rdx, %rax
	jmp	.L15
	.cfi_endproc
.LFE0:
	.size	main, .-main
.Letext0:
	.file 2 "/usr/lib/gcc/x86_64-unknown-linux-gnu/4.6.1/include/stddef.h"
	.file 3 "/usr/include/bits/types.h"
	.file 4 "/usr/include/libio.h"
	.file 5 "/usr/include/stdio.h"
	.section	.note.GNU-stack,"",@progbits
