	.file	"cpp-y-tail.c"
	.text
.Ltext0:
	.local	data
	.comm	data,8388608,32
	.local	code
	.comm	code,262144,32
	.local	dtmp
	.comm	dtmp,8388608,32
	.data
	.align 8
	.type	d, @object
	.size	d, 8
d:
	.quad	data+8388608
	.align 8
	.type	D, @object
	.size	D, 8
D:
	.quad	dtmp
	.align 8
	.type	c, @object
	.size	c, 8
c:
	.quad	code+262144
	.local	tmp
	.comm	tmp,8,8
	.section	.rodata
.LC0:
	.string	"%d\n"
.LC1:
	.string	"%f\n"
.LC2:
	.string	"\n[data]\n"
	.align 8
.LC3:
	.string	"%4d|i%20lld|v%20lld|dv%20lf|V\n"
.LC4:
	.string	"[daux]\n"
.LC5:
	.string	"[code]\n"
.LC6:
	.string	"%4d|i%20lld|dv\n"
.LC7:
	.string	"\n%s %d %s"
.LC8:
	.string	"[ts [[KscwEw]z I] [,[,]z] /]"
.LC9:
	.string	"g1"
.LC10:
	.string	"\n%8s"
.LC11:
	.string	"t"
	.align 8
.LC12:
	.string	"%8d|x%8d|s%6d|c%20lld|v%20lld|dv%20lf|V"
.LC13:
	.string	"s"
.LC14:
	.string	" "
.LC15:
	.string	"/"
.LC16:
	.string	"[[KscwEw]z I]"
.LC17:
	.string	"g2"
.LC18:
	.string	"z"
.LC19:
	.string	"I"
.LC20:
	.string	"[KscwEw]"
.LC21:
	.string	"g3"
.LC22:
	.string	"K"
.LC23:
	.string	"c"
.LC24:
	.string	"w"
.LC25:
	.string	"E"
.LC26:
	.string	"]"
.LC27:
	.string	"[,[,]z]"
.LC28:
	.string	"g5"
.LC29:
	.string	","
.LC30:
	.string	"[,]"
.LC31:
	.string	"g6"
	.align 8
.LC32:
	.string	"k5 K [ts [[KscwEw]z I] [,[,]z] /] y"
.LC33:
	.string	"main"
.LC34:
	.string	"k"
.LC35:
	.string	"5"
.LC36:
	.string	"y"
	.text
	.globl	main
	.type	main, @function
main:
.LFB0:
	.file 1 "test/cpp-y-tail.c"
	.loc 1 20 0
	.cfi_startproc
	pushq	%rbp
.LCFI0:
	.cfi_def_cfa_offset 16
	.cfi_offset 6, -16
	movq	%rsp, %rbp
.LCFI1:
	.cfi_def_cfa_register 6
	pushq	%rbx
	subq	$888, %rsp
	.loc 1 22 0
	leaq	-880(%rbp), %rsi
	movl	$0, %eax
	movl	$104, %edx
	movq	%rsi, %rdi
	movq	%rdx, %rcx
	rep stosq
	movl	$.L2, %eax
	movq	%rax, -880(%rbp)
	movl	$.L3, %eax
	movq	%rax, -872(%rbp)
	movl	$.L4, %eax
	movq	%rax, -864(%rbp)
	movl	$.L5, %eax
	movq	%rax, -856(%rbp)
	movl	$.L6, %eax
	movq	%rax, -56(%rbp)
	.loc 1 23 0
	leaq	-880(%rbp), %rax
	addq	$832, %rax
	movq	%rax, -32(%rbp)
	.loc 1 24 0
	movl	$0, -36(%rbp)
	.loc 1 25 0
	movq	$0, -24(%rbp)
	.loc 1 26 0
	movq	c(%rip), %rax
	subq	$8, %rax
	movq	%rax, c(%rip)
	movq	c(%rip), %rax
	movl	$.L7, %edx
	movq	%rdx, (%rax)
	.loc 1 27 0
	jmp	.L8
	.cfi_offset 3, -24
.L7:
	.loc 1 28 0
	movq	d(%rip), %rax
	movq	(%rax), %rax
	.loc 1 100 0
	addq	$888, %rsp
	popq	%rbx
	popq	%rbp
	.cfi_remember_state
.LCFI2:
	.cfi_def_cfa 7, 8
	ret
.L5:
.LCFI3:
	.cfi_restore_state
	.loc 1 29 0
	movq	d(%rip), %rax
	movq	(%rax), %rdx
	addq	$8, %rax
	movq	%rax, d(%rip)
	movl	$.LC0, %eax
	movq	%rdx, %rsi
	movq	%rax, %rdi
	movl	$0, %eax
	call	printf
	movq	c(%rip), %rax
	movq	(%rax), %rdx
	addq	$8, %rax
	movq	%rax, c(%rip)
	movq	%rdx, %rax
.L9:
	jmp	*%rax
.L4:
	.loc 1 30 0
	movq	d(%rip), %rax
	movq	(%rax), %rdx
	addq	$8, %rax
	movq	%rax, d(%rip)
	movl	$.LC1, %eax
	movq	%rdx, %rsi
	movq	%rax, %rdi
	movl	$0, %eax
	call	printf
	movq	c(%rip), %rax
	movq	(%rax), %rdx
	addq	$8, %rax
	movq	%rax, c(%rip)
	movq	%rdx, %rax
	jmp	.L9
.L3:
	.loc 1 32 0
	movq	stderr(%rip), %rax
	movq	%rax, %rdx
	movl	$.LC2, %eax
	movq	%rdx, %rcx
	movl	$8, %edx
	movl	$1, %esi
	movq	%rax, %rdi
	call	fwrite
	movq	d(%rip), %rax
	movq	%rax, -24(%rbp)
	jmp	.L10
.L11:
	.loc 1 32 0 is_stmt 0 discriminator 2
	movq	-24(%rbp), %rax
	movq	(%rax), %rdi
	movq	-24(%rbp), %rax
	movq	(%rax), %rdx
	movl	$main, %eax
	movq	%rdx, %r8
	subq	%rax, %r8
	movq	-24(%rbp), %rax
	movq	(%rax), %rcx
	movq	-24(%rbp), %rdx
	movq	d(%rip), %rax
	movq	%rdx, %rbx
	subq	%rax, %rbx
	movq	%rbx, %rax
	sarq	$3, %rax
	movq	%rax, %rdx
	movl	$.LC3, %esi
	movq	stderr(%rip), %rax
	movq	%rdi, %r9
	movq	%rax, %rdi
	movl	$0, %eax
	call	fprintf
	addq	$8, -24(%rbp)
.L10:
	.loc 1 32 0 discriminator 1
	cmpq	$data+8388608, -24(%rbp)
	jb	.L11
	.loc 1 33 0 is_stmt 1
	movq	stderr(%rip), %rax
	movq	%rax, %rdx
	movl	$.LC4, %eax
	movq	%rdx, %rcx
	movl	$7, %edx
	movl	$1, %esi
	movq	%rax, %rdi
	call	fwrite
	movq	$dtmp, -24(%rbp)
	jmp	.L12
.L13:
	.loc 1 33 0 is_stmt 0 discriminator 2
	movq	-24(%rbp), %rax
	movq	(%rax), %rdi
	movq	-24(%rbp), %rax
	movq	(%rax), %rdx
	movl	$main, %eax
	movq	%rdx, %r8
	subq	%rax, %r8
	movq	-24(%rbp), %rax
	movq	(%rax), %rcx
	movq	-24(%rbp), %rdx
	movl	$dtmp, %eax
	movq	%rdx, %rbx
	subq	%rax, %rbx
	movq	%rbx, %rax
	sarq	$3, %rax
	movq	%rax, %rdx
	movl	$.LC3, %esi
	movq	stderr(%rip), %rax
	movq	%rdi, %r9
	movq	%rax, %rdi
	movl	$0, %eax
	call	fprintf
	addq	$8, -24(%rbp)
.L12:
	.loc 1 33 0 discriminator 1
	movq	D(%rip), %rax
	cmpq	%rax, -24(%rbp)
	jb	.L13
	.loc 1 34 0 is_stmt 1
	movq	stderr(%rip), %rax
	movq	%rax, %rdx
	movl	$.LC5, %eax
	movq	%rdx, %rcx
	movl	$7, %edx
	movl	$1, %esi
	movq	%rax, %rdi
	call	fwrite
	movq	c(%rip), %rax
	movq	%rax, -24(%rbp)
	jmp	.L14
.L15:
	.loc 1 34 0 is_stmt 0 discriminator 2
	movq	-24(%rbp), %rax
	movq	(%rax), %rdx
	movl	$main, %eax
	movq	%rdx, %rcx
	subq	%rax, %rcx
	movq	-24(%rbp), %rdx
	movq	c(%rip), %rax
	movq	%rdx, %rdi
	subq	%rax, %rdi
	movq	%rdi, %rax
	sarq	$3, %rax
	movq	%rax, %rdx
	movl	$.LC6, %esi
	movq	stderr(%rip), %rax
	movq	%rax, %rdi
	movl	$0, %eax
	call	fprintf
	addq	$8, -24(%rbp)
.L14:
	.loc 1 34 0 discriminator 1
	cmpq	$code+262144, -24(%rbp)
	jb	.L15
	.loc 1 35 0 is_stmt 1
	movq	c(%rip), %rax
	movq	(%rax), %rdx
	addq	$8, %rax
	movq	%rax, c(%rip)
	movq	%rdx, %rax
	jmp	.L9
.L2:
	.loc 1 36 0
	movq	d(%rip), %rax
	movq	(%rax), %rdx
	imull	$1000, %edx, %edx
	addq	$8, %rax
	movq	%rax, d(%rip)
	movl	%edx, %edi
	call	usleep
	movq	c(%rip), %rax
	movq	(%rax), %rdx
	addq	$8, %rax
	movq	%rax, c(%rip)
	movq	%rdx, %rax
	jmp	.L9
.L6:
	.loc 1 38 0
	movq	stdout(%rip), %rcx
	movq	d(%rip), %rax
	movq	(%rax), %rdx
	movsbl	%dl, %edx
	addq	$8, %rax
	movq	%rax, d(%rip)
	movq	%rcx, %rsi
	movl	%edx, %edi
	call	_IO_putc
	movq	c(%rip), %rax
	movq	(%rax), %rdx
	addq	$8, %rax
	movq	%rax, c(%rip)
	movq	%rdx, %rax
	jmp	.L9
.L16:
	.loc 1 41 0
	movl	$main, %eax
	negq	%rax
	leaq	.L16(%rax), %rdx
	movl	$.LC7, %esi
	movq	stderr(%rip), %rax
	movl	$.LC8, %r8d
	movq	%rdx, %rcx
	movl	$.LC9, %edx
	movq	%rax, %rdi
	movl	$0, %eax
	call	fprintf
	.loc 1 42 0
	movl	$.LC10, %ecx
	movq	stderr(%rip), %rax
	movl	$.LC11, %edx
	movq	%rcx, %rsi
	movq	%rax, %rdi
	movl	$0, %eax
	call	fprintf
	movq	d(%rip), %rax
	subq	$8, %rax
	movq	%rax, d(%rip)
	movq	d(%rip), %rax
	movq	$2, (%rax)
	movq	d(%rip), %rax
	movq	(%rax), %rdi
	movq	d(%rip), %rax
	movq	(%rax), %rdx
	movl	$main, %eax
	movq	%rdx, %r10
	subq	%rax, %r10
	movq	d(%rip), %rax
	movq	(%rax), %r9
	movl	$code+262144, %edx
	movq	c(%rip), %rax
	movq	%rdx, %rcx
	subq	%rax, %rcx
	movq	%rcx, %rax
	sarq	$3, %rax
	movq	%rax, %r8
	movl	$data+8388608, %edx
	movq	d(%rip), %rax
	movq	%rdx, %rbx
	subq	%rax, %rbx
	movq	%rbx, %rax
	sarq	$3, %rax
	movq	%rax, %rcx
	movq	D(%rip), %rax
	movq	%rax, %rdx
	movl	$dtmp, %eax
	movq	%rdx, %rbx
	subq	%rax, %rbx
	movq	%rbx, %rax
	sarq	$3, %rax
	movq	%rax, %rdx
	movl	$.LC12, %esi
	movq	stderr(%rip), %rax
	movq	%rdi, 8(%rsp)
	movq	%r10, (%rsp)
	movq	%rax, %rdi
	movl	$0, %eax
	call	fprintf
	.loc 1 43 0
	movl	$.LC10, %ecx
	movq	stderr(%rip), %rax
	movl	$.LC13, %edx
	movq	%rcx, %rsi
	movq	%rax, %rdi
	movl	$0, %eax
	call	fprintf
	movq	d(%rip), %rax
	movq	d(%rip), %rcx
	movq	d(%rip), %rdx
	movq	(%rdx), %rdx
	addq	$1, %rdx
	salq	$3, %rdx
	addq	%rcx, %rdx
	movq	(%rdx), %rdx
	movq	%rdx, (%rax)
	movq	d(%rip), %rax
	movq	(%rax), %rdi
	movq	d(%rip), %rax
	movq	(%rax), %rdx
	movl	$main, %eax
	movq	%rdx, %r10
	subq	%rax, %r10
	movq	d(%rip), %rax
	movq	(%rax), %r9
	movl	$code+262144, %edx
	movq	c(%rip), %rax
	movq	%rdx, %rcx
	subq	%rax, %rcx
	movq	%rcx, %rax
	sarq	$3, %rax
	movq	%rax, %r8
	movl	$data+8388608, %edx
	movq	d(%rip), %rax
	movq	%rdx, %rbx
	subq	%rax, %rbx
	movq	%rbx, %rax
	sarq	$3, %rax
	movq	%rax, %rcx
	movq	D(%rip), %rax
	movq	%rax, %rdx
	movl	$dtmp, %eax
	movq	%rdx, %rbx
	subq	%rax, %rbx
	movq	%rbx, %rax
	sarq	$3, %rax
	movq	%rax, %rdx
	movl	$.LC12, %esi
	movq	stderr(%rip), %rax
	movq	%rdi, 8(%rsp)
	movq	%r10, (%rsp)
	movq	%rax, %rdi
	movl	$0, %eax
	call	fprintf
	.loc 1 44 0
	movl	$.LC10, %ecx
	movq	stderr(%rip), %rax
	movl	$.LC14, %edx
	movq	%rcx, %rsi
	movq	%rax, %rdi
	movl	$0, %eax
	call	fprintf
	movq	d(%rip), %rax
	movq	(%rax), %rdi
	movq	d(%rip), %rax
	movq	(%rax), %rdx
	movl	$main, %eax
	movq	%rdx, %r10
	subq	%rax, %r10
	movq	d(%rip), %rax
	movq	(%rax), %r9
	movl	$code+262144, %edx
	movq	c(%rip), %rax
	movq	%rdx, %rcx
	subq	%rax, %rcx
	movq	%rcx, %rax
	sarq	$3, %rax
	movq	%rax, %r8
	movl	$data+8388608, %edx
	movq	d(%rip), %rax
	movq	%rdx, %rbx
	subq	%rax, %rbx
	movq	%rbx, %rax
	sarq	$3, %rax
	movq	%rax, %rcx
	movq	D(%rip), %rax
	movq	%rax, %rdx
	movl	$dtmp, %eax
	movq	%rdx, %rbx
	subq	%rax, %rbx
	movq	%rbx, %rax
	sarq	$3, %rax
	movq	%rax, %rdx
	movl	$.LC12, %esi
	movq	stderr(%rip), %rax
	movq	%rdi, 8(%rsp)
	movq	%r10, (%rsp)
	movq	%rax, %rdi
	movl	$0, %eax
	call	fprintf
	.loc 1 45 0
	movq	d(%rip), %rax
	subq	$8, %rax
	movq	%rax, d(%rip)
	movq	d(%rip), %rax
	movl	$.L17, %edx
	movq	%rdx, (%rax)
	.loc 1 46 0
	movl	$.LC10, %ecx
	movq	stderr(%rip), %rax
	movl	$.LC14, %edx
	movq	%rcx, %rsi
	movq	%rax, %rdi
	movl	$0, %eax
	call	fprintf
	movq	d(%rip), %rax
	movq	(%rax), %rdi
	movq	d(%rip), %rax
	movq	(%rax), %rdx
	movl	$main, %eax
	movq	%rdx, %r10
	subq	%rax, %r10
	movq	d(%rip), %rax
	movq	(%rax), %r9
	movl	$code+262144, %edx
	movq	c(%rip), %rax
	movq	%rdx, %rcx
	subq	%rax, %rcx
	movq	%rcx, %rax
	sarq	$3, %rax
	movq	%rax, %r8
	movl	$data+8388608, %edx
	movq	d(%rip), %rax
	movq	%rdx, %rbx
	subq	%rax, %rbx
	movq	%rbx, %rax
	sarq	$3, %rax
	movq	%rax, %rcx
	movq	D(%rip), %rax
	movq	%rax, %rdx
	movl	$dtmp, %eax
	movq	%rdx, %rbx
	subq	%rax, %rbx
	movq	%rbx, %rax
	sarq	$3, %rax
	movq	%rax, %rdx
	movl	$.LC12, %esi
	movq	stderr(%rip), %rax
	movq	%rdi, 8(%rsp)
	movq	%r10, (%rsp)
	movq	%rax, %rdi
	movl	$0, %eax
	call	fprintf
	.loc 1 47 0
	movq	d(%rip), %rax
	subq	$8, %rax
	movq	%rax, d(%rip)
	movq	d(%rip), %rax
	movl	$.L18, %edx
	movq	%rdx, (%rax)
	.loc 1 48 0
	movl	$.LC10, %ecx
	movq	stderr(%rip), %rax
	movl	$.LC14, %edx
	movq	%rcx, %rsi
	movq	%rax, %rdi
	movl	$0, %eax
	call	fprintf
	movq	d(%rip), %rax
	movq	(%rax), %rdi
	movq	d(%rip), %rax
	movq	(%rax), %rdx
	movl	$main, %eax
	movq	%rdx, %r10
	subq	%rax, %r10
	movq	d(%rip), %rax
	movq	(%rax), %r9
	movl	$code+262144, %edx
	movq	c(%rip), %rax
	movq	%rdx, %rcx
	subq	%rax, %rcx
	movq	%rcx, %rax
	sarq	$3, %rax
	movq	%rax, %r8
	movl	$data+8388608, %edx
	movq	d(%rip), %rax
	movq	%rdx, %rbx
	subq	%rax, %rbx
	movq	%rbx, %rax
	sarq	$3, %rax
	movq	%rax, %rcx
	movq	D(%rip), %rax
	movq	%rax, %rdx
	movl	$dtmp, %eax
	movq	%rdx, %rbx
	subq	%rax, %rbx
	movq	%rbx, %rax
	sarq	$3, %rax
	movq	%rax, %rdx
	movl	$.LC12, %esi
	movq	stderr(%rip), %rax
	movq	%rdi, 8(%rsp)
	movq	%r10, (%rsp)
	movq	%rax, %rdi
	movl	$0, %eax
	call	fprintf
	.loc 1 49 0
	movl	$.LC10, %ecx
	movq	stderr(%rip), %rax
	movl	$.LC15, %edx
	movq	%rcx, %rsi
	movq	%rax, %rdi
	movl	$0, %eax
	call	fprintf
	movq	d(%rip), %rax
	addq	$24, %rax
	movq	%rax, d(%rip)
	movq	d(%rip), %rdx
	movq	d(%rip), %rax
	subq	$8, %rax
	movq	(%rax), %rax
	testq	%rax, %rax
	jne	.L19
	.loc 1 49 0 is_stmt 0 discriminator 1
	movq	$-24, %rax
	jmp	.L20
.L19:
	.loc 1 49 0 discriminator 2
	movq	$-16, %rax
.L20:
	.loc 1 49 0 discriminator 3
	addq	%rdx, %rax
	movq	(%rax), %rax
	jmp	.L9
.L17:
	.loc 1 54 0 is_stmt 1
	movl	$main, %eax
	negq	%rax
	leaq	.L17(%rax), %rdx
	movl	$.LC7, %esi
	movq	stderr(%rip), %rax
	movl	$.LC16, %r8d
	movq	%rdx, %rcx
	movl	$.LC17, %edx
	movq	%rax, %rdi
	movl	$0, %eax
	call	fprintf
	.loc 1 55 0
	movq	d(%rip), %rax
	subq	$8, %rax
	movq	%rax, d(%rip)
	movq	d(%rip), %rax
	movl	$.L21, %edx
	movq	%rdx, (%rax)
	.loc 1 56 0
	movl	$.LC10, %ecx
	movq	stderr(%rip), %rax
	movl	$.LC18, %edx
	movq	%rcx, %rsi
	movq	%rax, %rdi
	movl	$0, %eax
	call	fprintf
	movq	d(%rip), %rax
	movq	(%rax), %rdx
	movq	%rdx, tmp(%rip)
	addq	$8, %rax
	movq	%rax, d(%rip)
	movq	D(%rip), %rdx
	movq	d(%rip), %rax
	movq	(%rax), %rcx
	movq	%rcx, (%rdx)
	addq	$8, %rdx
	movq	%rdx, D(%rip)
	addq	$8, %rax
	movq	%rax, d(%rip)
	movq	c(%rip), %rax
	subq	$8, %rax
	movq	%rax, c(%rip)
	movq	c(%rip), %rax
	movl	$.L22, %edx
	movq	%rdx, (%rax)
	movq	tmp(%rip), %rax
	jmp	.L9
.L22:
	movq	d(%rip), %rax
	subq	$8, %rax
	movq	%rax, d(%rip)
	movq	d(%rip), %rax
	movq	D(%rip), %rdx
	subq	$8, %rdx
	movq	%rdx, D(%rip)
	movq	D(%rip), %rdx
	movq	(%rdx), %rdx
	movq	%rdx, (%rax)
	movq	d(%rip), %rax
	movq	(%rax), %rdi
	movq	d(%rip), %rax
	movq	(%rax), %rdx
	movl	$main, %eax
	movq	%rdx, %r10
	subq	%rax, %r10
	movq	d(%rip), %rax
	movq	(%rax), %r9
	movl	$code+262144, %edx
	movq	c(%rip), %rax
	movq	%rdx, %rcx
	subq	%rax, %rcx
	movq	%rcx, %rax
	sarq	$3, %rax
	movq	%rax, %r8
	movl	$data+8388608, %edx
	movq	d(%rip), %rax
	movq	%rdx, %rbx
	subq	%rax, %rbx
	movq	%rbx, %rax
	sarq	$3, %rax
	movq	%rax, %rcx
	movq	D(%rip), %rax
	movq	%rax, %rdx
	movl	$dtmp, %eax
	movq	%rdx, %rbx
	subq	%rax, %rbx
	movq	%rbx, %rax
	sarq	$3, %rax
	movq	%rax, %rdx
	movl	$.LC12, %esi
	movq	stderr(%rip), %rax
	movq	%rdi, 8(%rsp)
	movq	%r10, (%rsp)
	movq	%rax, %rdi
	movl	$0, %eax
	call	fprintf
	.loc 1 57 0
	movl	$.LC10, %ecx
	movq	stderr(%rip), %rax
	movl	$.LC14, %edx
	movq	%rcx, %rsi
	movq	%rax, %rdi
	movl	$0, %eax
	call	fprintf
	movq	d(%rip), %rax
	movq	(%rax), %rdi
	movq	d(%rip), %rax
	movq	(%rax), %rdx
	movl	$main, %eax
	movq	%rdx, %r10
	subq	%rax, %r10
	movq	d(%rip), %rax
	movq	(%rax), %r9
	movl	$code+262144, %edx
	movq	c(%rip), %rax
	movq	%rdx, %rcx
	subq	%rax, %rcx
	movq	%rcx, %rax
	sarq	$3, %rax
	movq	%rax, %r8
	movl	$data+8388608, %edx
	movq	d(%rip), %rax
	movq	%rdx, %rbx
	subq	%rax, %rbx
	movq	%rbx, %rax
	sarq	$3, %rax
	movq	%rax, %rcx
	movq	D(%rip), %rax
	movq	%rax, %rdx
	movl	$dtmp, %eax
	movq	%rdx, %rbx
	subq	%rax, %rbx
	movq	%rbx, %rax
	sarq	$3, %rax
	movq	%rax, %rdx
	movl	$.LC12, %esi
	movq	stderr(%rip), %rax
	movq	%rdi, 8(%rsp)
	movq	%r10, (%rsp)
	movq	%rax, %rdi
	movl	$0, %eax
	call	fprintf
	.loc 1 58 0
	movl	$.LC10, %ecx
	movq	stderr(%rip), %rax
	movl	$.LC19, %edx
	movq	%rcx, %rsi
	movq	%rax, %rdi
	movl	$0, %eax
	call	fprintf
	movq	d(%rip), %rax
	movq	(%rax), %rdx
	addq	$8, %rax
	movq	%rax, d(%rip)
	movq	%rdx, %rax
	jmp	.L9
.L21:
	.loc 1 63 0
	movl	$main, %eax
	negq	%rax
	leaq	.L21(%rax), %rdx
	movl	$.LC7, %esi
	movq	stderr(%rip), %rax
	movl	$.LC20, %r8d
	movq	%rdx, %rcx
	movl	$.LC21, %edx
	movq	%rax, %rdi
	movl	$0, %eax
	call	fprintf
	.loc 1 64 0
	movl	$.LC10, %ecx
	movq	stderr(%rip), %rax
	movl	$.LC22, %edx
	movq	%rcx, %rsi
	movq	%rax, %rdi
	movl	$0, %eax
	call	fprintf
	movq	d(%rip), %rax
	subq	$8, %rax
	movq	%rax, d(%rip)
	movq	d(%rip), %rax
	movq	$1, (%rax)
	movq	d(%rip), %rax
	movq	(%rax), %rdi
	movq	d(%rip), %rax
	movq	(%rax), %rdx
	movl	$main, %eax
	movq	%rdx, %r10
	subq	%rax, %r10
	movq	d(%rip), %rax
	movq	(%rax), %r9
	movl	$code+262144, %edx
	movq	c(%rip), %rax
	movq	%rdx, %rcx
	subq	%rax, %rcx
	movq	%rcx, %rax
	sarq	$3, %rax
	movq	%rax, %r8
	movl	$data+8388608, %edx
	movq	d(%rip), %rax
	movq	%rdx, %rbx
	subq	%rax, %rbx
	movq	%rbx, %rax
	sarq	$3, %rax
	movq	%rax, %rcx
	movq	D(%rip), %rax
	movq	%rax, %rdx
	movl	$dtmp, %eax
	movq	%rdx, %rbx
	subq	%rax, %rbx
	movq	%rbx, %rax
	sarq	$3, %rax
	movq	%rax, %rdx
	movl	$.LC12, %esi
	movq	stderr(%rip), %rax
	movq	%rdi, 8(%rsp)
	movq	%r10, (%rsp)
	movq	%rax, %rdi
	movl	$0, %eax
	call	fprintf
	.loc 1 65 0
	movl	$.LC10, %ecx
	movq	stderr(%rip), %rax
	movl	$.LC13, %edx
	movq	%rcx, %rsi
	movq	%rax, %rdi
	movl	$0, %eax
	call	fprintf
	movq	d(%rip), %rax
	movq	d(%rip), %rcx
	movq	d(%rip), %rdx
	movq	(%rdx), %rdx
	addq	$1, %rdx
	salq	$3, %rdx
	addq	%rcx, %rdx
	movq	(%rdx), %rdx
	movq	%rdx, (%rax)
	movq	d(%rip), %rax
	movq	(%rax), %rdi
	movq	d(%rip), %rax
	movq	(%rax), %rdx
	movl	$main, %eax
	movq	%rdx, %r10
	subq	%rax, %r10
	movq	d(%rip), %rax
	movq	(%rax), %r9
	movl	$code+262144, %edx
	movq	c(%rip), %rax
	movq	%rdx, %rcx
	subq	%rax, %rcx
	movq	%rcx, %rax
	sarq	$3, %rax
	movq	%rax, %r8
	movl	$data+8388608, %edx
	movq	d(%rip), %rax
	movq	%rdx, %rbx
	subq	%rax, %rbx
	movq	%rbx, %rax
	sarq	$3, %rax
	movq	%rax, %rcx
	movq	D(%rip), %rax
	movq	%rax, %rdx
	movl	$dtmp, %eax
	movq	%rdx, %rbx
	subq	%rax, %rbx
	movq	%rbx, %rax
	sarq	$3, %rax
	movq	%rax, %rdx
	movl	$.LC12, %esi
	movq	stderr(%rip), %rax
	movq	%rdi, 8(%rsp)
	movq	%r10, (%rsp)
	movq	%rax, %rdi
	movl	$0, %eax
	call	fprintf
	.loc 1 66 0
	movl	$.LC10, %ecx
	movq	stderr(%rip), %rax
	movl	$.LC23, %edx
	movq	%rcx, %rsi
	movq	%rax, %rdi
	movl	$0, %eax
	call	fprintf
	movq	d(%rip), %rax
	leaq	8(%rax), %rdx
	movq	d(%rip), %rax
	addq	$8, %rax
	movq	(%rax), %rcx
	movq	d(%rip), %rax
	movq	(%rax), %rax
	imulq	%rcx, %rax
	movq	%rax, (%rdx)
	movq	d(%rip), %rax
	addq	$8, %rax
	movq	%rax, d(%rip)
	movq	d(%rip), %rax
	movq	(%rax), %rdi
	movq	d(%rip), %rax
	movq	(%rax), %rdx
	movl	$main, %eax
	movq	%rdx, %r10
	subq	%rax, %r10
	movq	d(%rip), %rax
	movq	(%rax), %r9
	movl	$code+262144, %edx
	movq	c(%rip), %rax
	movq	%rdx, %rcx
	subq	%rax, %rcx
	movq	%rcx, %rax
	sarq	$3, %rax
	movq	%rax, %r8
	movl	$data+8388608, %edx
	movq	d(%rip), %rax
	movq	%rdx, %rbx
	subq	%rax, %rbx
	movq	%rbx, %rax
	sarq	$3, %rax
	movq	%rax, %rcx
	movq	D(%rip), %rax
	movq	%rax, %rdx
	movl	$dtmp, %eax
	movq	%rdx, %rbx
	subq	%rax, %rbx
	movq	%rbx, %rax
	sarq	$3, %rax
	movq	%rax, %rdx
	movl	$.LC12, %esi
	movq	stderr(%rip), %rax
	movq	%rdi, 8(%rsp)
	movq	%r10, (%rsp)
	movq	%rax, %rdi
	movl	$0, %eax
	call	fprintf
	.loc 1 67 0
	movl	$.LC10, %ecx
	movq	stderr(%rip), %rax
	movl	$.LC24, %edx
	movq	%rcx, %rsi
	movq	%rax, %rdi
	movl	$0, %eax
	call	fprintf
	movq	d(%rip), %rax
	movq	(%rax), %rax
	movq	%rax, tmp(%rip)
	movq	d(%rip), %rax
	movq	d(%rip), %rdx
	movq	8(%rdx), %rdx
	movq	%rdx, (%rax)
	movq	d(%rip), %rax
	leaq	8(%rax), %rdx
	movq	tmp(%rip), %rax
	movq	%rax, (%rdx)
	movq	d(%rip), %rax
	movq	(%rax), %rdi
	movq	d(%rip), %rax
	movq	(%rax), %rdx
	movl	$main, %eax
	movq	%rdx, %r10
	subq	%rax, %r10
	movq	d(%rip), %rax
	movq	(%rax), %r9
	movl	$code+262144, %edx
	movq	c(%rip), %rax
	movq	%rdx, %rcx
	subq	%rax, %rcx
	movq	%rcx, %rax
	sarq	$3, %rax
	movq	%rax, %r8
	movl	$data+8388608, %edx
	movq	d(%rip), %rax
	movq	%rdx, %rbx
	subq	%rax, %rbx
	movq	%rbx, %rax
	sarq	$3, %rax
	movq	%rax, %rcx
	movq	D(%rip), %rax
	movq	%rax, %rdx
	movl	$dtmp, %eax
	movq	%rdx, %rbx
	subq	%rax, %rbx
	movq	%rbx, %rax
	sarq	$3, %rax
	movq	%rax, %rdx
	movl	$.LC12, %esi
	movq	stderr(%rip), %rax
	movq	%rdi, 8(%rsp)
	movq	%r10, (%rsp)
	movq	%rax, %rdi
	movl	$0, %eax
	call	fprintf
	.loc 1 68 0
	movl	$.LC10, %ecx
	movq	stderr(%rip), %rax
	movl	$.LC25, %edx
	movq	%rcx, %rsi
	movq	%rax, %rdi
	movl	$0, %eax
	call	fprintf
	movq	d(%rip), %rax
	movq	(%rax), %rdx
	subq	$1, %rdx
	movq	%rdx, (%rax)
	movq	d(%rip), %rax
	movq	(%rax), %rdi
	movq	d(%rip), %rax
	movq	(%rax), %rdx
	movl	$main, %eax
	movq	%rdx, %r10
	subq	%rax, %r10
	movq	d(%rip), %rax
	movq	(%rax), %r9
	movl	$code+262144, %edx
	movq	c(%rip), %rax
	movq	%rdx, %rcx
	subq	%rax, %rcx
	movq	%rcx, %rax
	sarq	$3, %rax
	movq	%rax, %r8
	movl	$data+8388608, %edx
	movq	d(%rip), %rax
	movq	%rdx, %rbx
	subq	%rax, %rbx
	movq	%rbx, %rax
	sarq	$3, %rax
	movq	%rax, %rcx
	movq	D(%rip), %rax
	movq	%rax, %rdx
	movl	$dtmp, %eax
	movq	%rdx, %rbx
	subq	%rax, %rbx
	movq	%rbx, %rax
	sarq	$3, %rax
	movq	%rax, %rdx
	movl	$.LC12, %esi
	movq	stderr(%rip), %rax
	movq	%rdi, 8(%rsp)
	movq	%r10, (%rsp)
	movq	%rax, %rdi
	movl	$0, %eax
	call	fprintf
	.loc 1 69 0
	movl	$.LC10, %ecx
	movq	stderr(%rip), %rax
	movl	$.LC24, %edx
	movq	%rcx, %rsi
	movq	%rax, %rdi
	movl	$0, %eax
	call	fprintf
	movq	d(%rip), %rax
	movq	(%rax), %rax
	movq	%rax, tmp(%rip)
	movq	d(%rip), %rax
	movq	d(%rip), %rdx
	movq	8(%rdx), %rdx
	movq	%rdx, (%rax)
	movq	d(%rip), %rax
	leaq	8(%rax), %rdx
	movq	tmp(%rip), %rax
	movq	%rax, (%rdx)
	movq	d(%rip), %rax
	movq	(%rax), %rdi
	movq	d(%rip), %rax
	movq	(%rax), %rdx
	movl	$main, %eax
	movq	%rdx, %r10
	subq	%rax, %r10
	movq	d(%rip), %rax
	movq	(%rax), %r9
	movl	$code+262144, %edx
	movq	c(%rip), %rax
	movq	%rdx, %rcx
	subq	%rax, %rcx
	movq	%rcx, %rax
	sarq	$3, %rax
	movq	%rax, %r8
	movl	$data+8388608, %edx
	movq	d(%rip), %rax
	movq	%rdx, %rbx
	subq	%rax, %rbx
	movq	%rbx, %rax
	sarq	$3, %rax
	movq	%rax, %rcx
	movq	D(%rip), %rax
	movq	%rax, %rdx
	movl	$dtmp, %eax
	movq	%rdx, %rbx
	subq	%rax, %rbx
	movq	%rbx, %rax
	sarq	$3, %rax
	movq	%rax, %rdx
	movl	$.LC12, %esi
	movq	stderr(%rip), %rax
	movq	%rdi, 8(%rsp)
	movq	%r10, (%rsp)
	movq	%rax, %rdi
	movl	$0, %eax
	call	fprintf
	.loc 1 70 0
	movl	$.LC10, %ecx
	movq	stderr(%rip), %rax
	movl	$.LC26, %edx
	movq	%rcx, %rsi
	movq	%rax, %rdi
	movl	$0, %eax
	call	fprintf
	movq	c(%rip), %rax
	movq	(%rax), %rdx
	addq	$8, %rax
	movq	%rax, c(%rip)
	movq	%rdx, %rax
	jmp	.L9
.L18:
	.loc 1 74 0
	movl	$main, %eax
	negq	%rax
	leaq	.L18(%rax), %rdx
	movl	$.LC7, %esi
	movq	stderr(%rip), %rax
	movl	$.LC27, %r8d
	movq	%rdx, %rcx
	movl	$.LC28, %edx
	movq	%rax, %rdi
	movl	$0, %eax
	call	fprintf
	.loc 1 75 0
	movl	$.LC10, %ecx
	movq	stderr(%rip), %rax
	movl	$.LC29, %edx
	movq	%rcx, %rsi
	movq	%rax, %rdi
	movl	$0, %eax
	call	fprintf
	movq	d(%rip), %rax
	addq	$8, %rax
	movq	%rax, d(%rip)
	movq	d(%rip), %rax
	movq	(%rax), %rdi
	movq	d(%rip), %rax
	movq	(%rax), %rdx
	movl	$main, %eax
	movq	%rdx, %r10
	subq	%rax, %r10
	movq	d(%rip), %rax
	movq	(%rax), %r9
	movl	$code+262144, %edx
	movq	c(%rip), %rax
	movq	%rdx, %rcx
	subq	%rax, %rcx
	movq	%rcx, %rax
	sarq	$3, %rax
	movq	%rax, %r8
	movl	$data+8388608, %edx
	movq	d(%rip), %rax
	movq	%rdx, %rbx
	subq	%rax, %rbx
	movq	%rbx, %rax
	sarq	$3, %rax
	movq	%rax, %rcx
	movq	D(%rip), %rax
	movq	%rax, %rdx
	movl	$dtmp, %eax
	movq	%rdx, %rbx
	subq	%rax, %rbx
	movq	%rbx, %rax
	sarq	$3, %rax
	movq	%rax, %rdx
	movl	$.LC12, %esi
	movq	stderr(%rip), %rax
	movq	%rdi, 8(%rsp)
	movq	%r10, (%rsp)
	movq	%rax, %rdi
	movl	$0, %eax
	call	fprintf
	.loc 1 76 0
	movq	d(%rip), %rax
	subq	$8, %rax
	movq	%rax, d(%rip)
	movq	d(%rip), %rax
	movl	$.L23, %edx
	movq	%rdx, (%rax)
	.loc 1 77 0
	movl	$.LC10, %ecx
	movq	stderr(%rip), %rax
	movl	$.LC18, %edx
	movq	%rcx, %rsi
	movq	%rax, %rdi
	movl	$0, %eax
	call	fprintf
	movq	d(%rip), %rax
	movq	(%rax), %rdx
	movq	%rdx, tmp(%rip)
	addq	$8, %rax
	movq	%rax, d(%rip)
	movq	D(%rip), %rdx
	movq	d(%rip), %rax
	movq	(%rax), %rcx
	movq	%rcx, (%rdx)
	addq	$8, %rdx
	movq	%rdx, D(%rip)
	addq	$8, %rax
	movq	%rax, d(%rip)
	movq	c(%rip), %rax
	subq	$8, %rax
	movq	%rax, c(%rip)
	movq	c(%rip), %rax
	movl	$.L24, %edx
	movq	%rdx, (%rax)
	movq	tmp(%rip), %rax
	jmp	.L9
.L24:
	movq	d(%rip), %rax
	subq	$8, %rax
	movq	%rax, d(%rip)
	movq	d(%rip), %rax
	movq	D(%rip), %rdx
	subq	$8, %rdx
	movq	%rdx, D(%rip)
	movq	D(%rip), %rdx
	movq	(%rdx), %rdx
	movq	%rdx, (%rax)
	movq	d(%rip), %rax
	movq	(%rax), %rdi
	movq	d(%rip), %rax
	movq	(%rax), %rdx
	movl	$main, %eax
	movq	%rdx, %r10
	subq	%rax, %r10
	movq	d(%rip), %rax
	movq	(%rax), %r9
	movl	$code+262144, %edx
	movq	c(%rip), %rax
	movq	%rdx, %rcx
	subq	%rax, %rcx
	movq	%rcx, %rax
	sarq	$3, %rax
	movq	%rax, %r8
	movl	$data+8388608, %edx
	movq	d(%rip), %rax
	movq	%rdx, %rbx
	subq	%rax, %rbx
	movq	%rbx, %rax
	sarq	$3, %rax
	movq	%rax, %rcx
	movq	D(%rip), %rax
	movq	%rax, %rdx
	movl	$dtmp, %eax
	movq	%rdx, %rbx
	subq	%rax, %rbx
	movq	%rbx, %rax
	sarq	$3, %rax
	movq	%rax, %rdx
	movl	$.LC12, %esi
	movq	stderr(%rip), %rax
	movq	%rdi, 8(%rsp)
	movq	%r10, (%rsp)
	movq	%rax, %rdi
	movl	$0, %eax
	call	fprintf
	.loc 1 78 0
	movl	$.LC10, %ecx
	movq	stderr(%rip), %rax
	movl	$.LC26, %edx
	movq	%rcx, %rsi
	movq	%rax, %rdi
	movl	$0, %eax
	call	fprintf
	movq	c(%rip), %rax
	movq	(%rax), %rdx
	addq	$8, %rax
	movq	%rax, c(%rip)
	movq	%rdx, %rax
	jmp	.L9
.L23:
	.loc 1 82 0
	movl	$main, %eax
	negq	%rax
	leaq	.L23(%rax), %rdx
	movl	$.LC7, %esi
	movq	stderr(%rip), %rax
	movl	$.LC30, %r8d
	movq	%rdx, %rcx
	movl	$.LC31, %edx
	movq	%rax, %rdi
	movl	$0, %eax
	call	fprintf
	.loc 1 83 0
	movl	$.LC10, %ecx
	movq	stderr(%rip), %rax
	movl	$.LC29, %edx
	movq	%rcx, %rsi
	movq	%rax, %rdi
	movl	$0, %eax
	call	fprintf
	movq	d(%rip), %rax
	addq	$8, %rax
	movq	%rax, d(%rip)
	movq	d(%rip), %rax
	movq	(%rax), %rdi
	movq	d(%rip), %rax
	movq	(%rax), %rdx
	movl	$main, %eax
	movq	%rdx, %r10
	subq	%rax, %r10
	movq	d(%rip), %rax
	movq	(%rax), %r9
	movl	$code+262144, %edx
	movq	c(%rip), %rax
	movq	%rdx, %rcx
	subq	%rax, %rcx
	movq	%rcx, %rax
	sarq	$3, %rax
	movq	%rax, %r8
	movl	$data+8388608, %edx
	movq	d(%rip), %rax
	movq	%rdx, %rbx
	subq	%rax, %rbx
	movq	%rbx, %rax
	sarq	$3, %rax
	movq	%rax, %rcx
	movq	D(%rip), %rax
	movq	%rax, %rdx
	movl	$dtmp, %eax
	movq	%rdx, %rbx
	subq	%rax, %rbx
	movq	%rbx, %rax
	sarq	$3, %rax
	movq	%rax, %rdx
	movl	$.LC12, %esi
	movq	stderr(%rip), %rax
	movq	%rdi, 8(%rsp)
	movq	%r10, (%rsp)
	movq	%rax, %rdi
	movl	$0, %eax
	call	fprintf
	.loc 1 84 0
	movl	$.LC10, %ecx
	movq	stderr(%rip), %rax
	movl	$.LC26, %edx
	movq	%rcx, %rsi
	movq	%rax, %rdi
	movl	$0, %eax
	call	fprintf
	movq	c(%rip), %rax
	movq	(%rax), %rdx
	addq	$8, %rax
	movq	%rax, c(%rip)
	movq	%rdx, %rax
	jmp	.L9
.L8:
	.loc 1 88 0
	movl	$main, %eax
	negq	%rax
	leaq	.L8(%rax), %rdx
	movl	$.LC7, %esi
	movq	stderr(%rip), %rax
	movl	$.LC32, %r8d
	movq	%rdx, %rcx
	movl	$.LC33, %edx
	movq	%rax, %rdi
	movl	$0, %eax
	call	fprintf
	.loc 1 89 0
	movl	$.LC10, %ecx
	movq	stderr(%rip), %rax
	movl	$.LC34, %edx
	movq	%rcx, %rsi
	movq	%rax, %rdi
	movl	$0, %eax
	call	fprintf
	movq	d(%rip), %rax
	subq	$8, %rax
	movq	%rax, d(%rip)
	movq	d(%rip), %rax
	movq	$0, (%rax)
	movq	d(%rip), %rax
	movq	(%rax), %rdi
	movq	d(%rip), %rax
	movq	(%rax), %rdx
	movl	$main, %eax
	movq	%rdx, %r10
	subq	%rax, %r10
	movq	d(%rip), %rax
	movq	(%rax), %r9
	movl	$code+262144, %edx
	movq	c(%rip), %rax
	movq	%rdx, %rcx
	subq	%rax, %rcx
	movq	%rcx, %rax
	sarq	$3, %rax
	movq	%rax, %r8
	movl	$data+8388608, %edx
	movq	d(%rip), %rax
	movq	%rdx, %rbx
	subq	%rax, %rbx
	movq	%rbx, %rax
	sarq	$3, %rax
	movq	%rax, %rcx
	movq	D(%rip), %rax
	movq	%rax, %rdx
	movl	$dtmp, %eax
	movq	%rdx, %rbx
	subq	%rax, %rbx
	movq	%rbx, %rax
	sarq	$3, %rax
	movq	%rax, %rdx
	movl	$.LC12, %esi
	movq	stderr(%rip), %rax
	movq	%rdi, 8(%rsp)
	movq	%r10, (%rsp)
	movq	%rax, %rdi
	movl	$0, %eax
	call	fprintf
	.loc 1 90 0
	movl	$.LC10, %ecx
	movq	stderr(%rip), %rax
	movl	$.LC35, %edx
	movq	%rcx, %rsi
	movq	%rax, %rdi
	movl	$0, %eax
	call	fprintf
	movq	d(%rip), %rcx
	movq	d(%rip), %rax
	movq	(%rax), %rdx
	movq	%rdx, %rax
	salq	$2, %rax
	addq	%rdx, %rax
	addq	%rax, %rax
	movq	%rax, (%rcx)
	movq	d(%rip), %rax
	movq	d(%rip), %rdx
	movq	(%rdx), %rdx
	addq	$5, %rdx
	movq	%rdx, (%rax)
	movq	d(%rip), %rax
	movq	(%rax), %rdi
	movq	d(%rip), %rax
	movq	(%rax), %rdx
	movl	$main, %eax
	movq	%rdx, %r10
	subq	%rax, %r10
	movq	d(%rip), %rax
	movq	(%rax), %r9
	movl	$code+262144, %edx
	movq	c(%rip), %rax
	movq	%rdx, %rcx
	subq	%rax, %rcx
	movq	%rcx, %rax
	sarq	$3, %rax
	movq	%rax, %r8
	movl	$data+8388608, %edx
	movq	d(%rip), %rax
	movq	%rdx, %rbx
	subq	%rax, %rbx
	movq	%rbx, %rax
	sarq	$3, %rax
	movq	%rax, %rcx
	movq	D(%rip), %rax
	movq	%rax, %rdx
	movl	$dtmp, %eax
	movq	%rdx, %rbx
	subq	%rax, %rbx
	movq	%rbx, %rax
	sarq	$3, %rax
	movq	%rax, %rdx
	movl	$.LC12, %esi
	movq	stderr(%rip), %rax
	movq	%rdi, 8(%rsp)
	movq	%r10, (%rsp)
	movq	%rax, %rdi
	movl	$0, %eax
	call	fprintf
	.loc 1 91 0
	movl	$.LC10, %ecx
	movq	stderr(%rip), %rax
	movl	$.LC14, %edx
	movq	%rcx, %rsi
	movq	%rax, %rdi
	movl	$0, %eax
	call	fprintf
	movq	d(%rip), %rax
	movq	(%rax), %rdi
	movq	d(%rip), %rax
	movq	(%rax), %rdx
	movl	$main, %eax
	movq	%rdx, %r10
	subq	%rax, %r10
	movq	d(%rip), %rax
	movq	(%rax), %r9
	movl	$code+262144, %edx
	movq	c(%rip), %rax
	movq	%rdx, %rcx
	subq	%rax, %rcx
	movq	%rcx, %rax
	sarq	$3, %rax
	movq	%rax, %r8
	movl	$data+8388608, %edx
	movq	d(%rip), %rax
	movq	%rdx, %rbx
	subq	%rax, %rbx
	movq	%rbx, %rax
	sarq	$3, %rax
	movq	%rax, %rcx
	movq	D(%rip), %rax
	movq	%rax, %rdx
	movl	$dtmp, %eax
	movq	%rdx, %rbx
	subq	%rax, %rbx
	movq	%rbx, %rax
	sarq	$3, %rax
	movq	%rax, %rdx
	movl	$.LC12, %esi
	movq	stderr(%rip), %rax
	movq	%rdi, 8(%rsp)
	movq	%r10, (%rsp)
	movq	%rax, %rdi
	movl	$0, %eax
	call	fprintf
	.loc 1 92 0
	movl	$.LC10, %ecx
	movq	stderr(%rip), %rax
	movl	$.LC22, %edx
	movq	%rcx, %rsi
	movq	%rax, %rdi
	movl	$0, %eax
	call	fprintf
	movq	d(%rip), %rax
	subq	$8, %rax
	movq	%rax, d(%rip)
	movq	d(%rip), %rax
	movq	$1, (%rax)
	movq	d(%rip), %rax
	movq	(%rax), %rdi
	movq	d(%rip), %rax
	movq	(%rax), %rdx
	movl	$main, %eax
	movq	%rdx, %r10
	subq	%rax, %r10
	movq	d(%rip), %rax
	movq	(%rax), %r9
	movl	$code+262144, %edx
	movq	c(%rip), %rax
	movq	%rdx, %rcx
	subq	%rax, %rcx
	movq	%rcx, %rax
	sarq	$3, %rax
	movq	%rax, %r8
	movl	$data+8388608, %edx
	movq	d(%rip), %rax
	movq	%rdx, %rbx
	subq	%rax, %rbx
	movq	%rbx, %rax
	sarq	$3, %rax
	movq	%rax, %rcx
	movq	D(%rip), %rax
	movq	%rax, %rdx
	movl	$dtmp, %eax
	movq	%rdx, %rbx
	subq	%rax, %rbx
	movq	%rbx, %rax
	sarq	$3, %rax
	movq	%rax, %rdx
	movl	$.LC12, %esi
	movq	stderr(%rip), %rax
	movq	%rdi, 8(%rsp)
	movq	%r10, (%rsp)
	movq	%rax, %rdi
	movl	$0, %eax
	call	fprintf
	.loc 1 93 0
	movl	$.LC10, %ecx
	movq	stderr(%rip), %rax
	movl	$.LC14, %edx
	movq	%rcx, %rsi
	movq	%rax, %rdi
	movl	$0, %eax
	call	fprintf
	movq	d(%rip), %rax
	movq	(%rax), %rdi
	movq	d(%rip), %rax
	movq	(%rax), %rdx
	movl	$main, %eax
	movq	%rdx, %r10
	subq	%rax, %r10
	movq	d(%rip), %rax
	movq	(%rax), %r9
	movl	$code+262144, %edx
	movq	c(%rip), %rax
	movq	%rdx, %rcx
	subq	%rax, %rcx
	movq	%rcx, %rax
	sarq	$3, %rax
	movq	%rax, %r8
	movl	$data+8388608, %edx
	movq	d(%rip), %rax
	movq	%rdx, %rbx
	subq	%rax, %rbx
	movq	%rbx, %rax
	sarq	$3, %rax
	movq	%rax, %rcx
	movq	D(%rip), %rax
	movq	%rax, %rdx
	movl	$dtmp, %eax
	movq	%rdx, %rbx
	subq	%rax, %rbx
	movq	%rbx, %rax
	sarq	$3, %rax
	movq	%rax, %rdx
	movl	$.LC12, %esi
	movq	stderr(%rip), %rax
	movq	%rdi, 8(%rsp)
	movq	%r10, (%rsp)
	movq	%rax, %rdi
	movl	$0, %eax
	call	fprintf
	.loc 1 94 0
	movq	d(%rip), %rax
	subq	$8, %rax
	movq	%rax, d(%rip)
	movq	d(%rip), %rax
	movl	$.L16, %edx
	movq	%rdx, (%rax)
	.loc 1 95 0
	movl	$.LC10, %ecx
	movq	stderr(%rip), %rax
	movl	$.LC14, %edx
	movq	%rcx, %rsi
	movq	%rax, %rdi
	movl	$0, %eax
	call	fprintf
	movq	d(%rip), %rax
	movq	(%rax), %rdi
	movq	d(%rip), %rax
	movq	(%rax), %rdx
	movl	$main, %eax
	movq	%rdx, %r10
	subq	%rax, %r10
	movq	d(%rip), %rax
	movq	(%rax), %r9
	movl	$code+262144, %edx
	movq	c(%rip), %rax
	movq	%rdx, %rcx
	subq	%rax, %rcx
	movq	%rcx, %rax
	sarq	$3, %rax
	movq	%rax, %r8
	movl	$data+8388608, %edx
	movq	d(%rip), %rax
	movq	%rdx, %rbx
	subq	%rax, %rbx
	movq	%rbx, %rax
	sarq	$3, %rax
	movq	%rax, %rcx
	movq	D(%rip), %rax
	movq	%rax, %rdx
	movl	$dtmp, %eax
	movq	%rdx, %rbx
	subq	%rax, %rbx
	movq	%rbx, %rax
	sarq	$3, %rax
	movq	%rax, %rdx
	movl	$.LC12, %esi
	movq	stderr(%rip), %rax
	movq	%rdi, 8(%rsp)
	movq	%r10, (%rsp)
	movq	%rax, %rdi
	movl	$0, %eax
	call	fprintf
	.loc 1 96 0
	movl	$.LC10, %ecx
	movq	stderr(%rip), %rax
	movl	$.LC36, %edx
	movq	%rcx, %rsi
	movq	%rax, %rdi
	movl	$0, %eax
	call	fprintf
	movq	D(%rip), %rdx
	movq	d(%rip), %rax
	movq	(%rax), %rcx
	movq	%rcx, (%rdx)
	addq	$8, %rdx
	movq	%rdx, D(%rip)
	addq	$8, %rax
	movq	%rax, d(%rip)
	movq	c(%rip), %rax
	subq	$8, %rax
	movq	%rax, c(%rip)
	movq	c(%rip), %rax
	movl	$.L25, %edx
	movq	%rdx, (%rax)
.L26:
	.loc 1 96 0 is_stmt 0 discriminator 1
	movq	d(%rip), %rax
	subq	$8, %rax
	movq	%rax, d(%rip)
	movq	d(%rip), %rax
	movl	$.L26, %edx
	movq	%rdx, (%rax)
	movq	D(%rip), %rax
	subq	$8, %rax
	movq	(%rax), %rax
	jmp	.L9
.L25:
	.loc 1 96 0
	movq	D(%rip), %rax
	subq	$8, %rax
	movq	%rax, D(%rip)
	movq	d(%rip), %rax
	movq	(%rax), %rdi
	movq	d(%rip), %rax
	movq	(%rax), %rdx
	movl	$main, %eax
	movq	%rdx, %r10
	subq	%rax, %r10
	movq	d(%rip), %rax
	movq	(%rax), %r9
	movl	$code+262144, %edx
	movq	c(%rip), %rax
	movq	%rdx, %rcx
	subq	%rax, %rcx
	movq	%rcx, %rax
	sarq	$3, %rax
	movq	%rax, %r8
	movl	$data+8388608, %edx
	movq	d(%rip), %rax
	movq	%rdx, %rbx
	subq	%rax, %rbx
	movq	%rbx, %rax
	sarq	$3, %rax
	movq	%rax, %rcx
	movq	D(%rip), %rax
	movq	%rax, %rdx
	movl	$dtmp, %eax
	movq	%rdx, %rbx
	subq	%rax, %rbx
	movq	%rbx, %rax
	sarq	$3, %rax
	movq	%rax, %rdx
	movl	$.LC12, %esi
	movq	stderr(%rip), %rax
	movq	%rdi, 8(%rsp)
	movq	%r10, (%rsp)
	movq	%rax, %rdi
	movl	$0, %eax
	call	fprintf
	.loc 1 97 0 is_stmt 1
	movl	$.LC10, %ecx
	movq	stderr(%rip), %rax
	movl	$.LC26, %edx
	movq	%rcx, %rsi
	movq	%rax, %rdi
	movl	$0, %eax
	call	fprintf
	movq	c(%rip), %rax
	movq	(%rax), %rdx
	addq	$8, %rax
	movq	%rax, c(%rip)
	movq	%rdx, %rax
	jmp	.L9
	.cfi_endproc
.LFE0:
	.size	main, .-main
.Letext0:
	.file 2 "/usr/lib/gcc/x86_64-unknown-linux-gnu/4.6.1/include/stddef.h"
	.file 3 "/usr/include/bits/types.h"
	.file 4 "/usr/include/libio.h"
	.file 5 "/usr/include/stdio.h"
	.section	.note.GNU-stack,"",@progbits
