	.file	"cpp-mandelbrot-pgm.c"
	.text
.Ltext0:
	.section	.rodata.str1.1,"aMS",@progbits,1
.LC0:
	.string	"%d\n"
.LC1:
	.string	"%f\n"
.LC2:
	.string	"\n[data]\n"
	.section	.rodata.str1.8,"aMS",@progbits,1
	.align 8
.LC3:
	.string	"%4d|i%20lld|v%20lld|dv%20lf|V\n"
	.section	.rodata.str1.1
.LC4:
	.string	"[daux]\n"
.LC5:
	.string	"[code]\n"
.LC6:
	.string	"%4d|i%20lld|dv\n"
	.text
	.globl	main
	.type	main, @function
main:
.LFB18:
	.file 1 "test/cpp-mandelbrot-pgm.c"
	.loc 1 20 0
	.cfi_startproc
	pushq	%r13
.LCFI0:
	.cfi_def_cfa_offset 16
	.cfi_offset 13, -16
	pushq	%r12
.LCFI1:
	.cfi_def_cfa_offset 24
	.cfi_offset 12, -24
	pushq	%rbp
.LCFI2:
	.cfi_def_cfa_offset 32
	.cfi_offset 6, -32
	pushq	%rbx
.LCFI3:
	.cfi_def_cfa_offset 40
	.cfi_offset 3, -40
	subq	$888, %rsp
.LCFI4:
	.cfi_def_cfa_offset 928
	.loc 1 22 0
	movq	%rsp, %rdi
	movl	$110, %ecx
	movl	$0, %eax
	rep stosq
	movq	$.L5, (%rsp)
	movq	$.L6, 8(%rsp)
	movq	$.L7, 16(%rsp)
	movq	$.L8, 24(%rsp)
	movq	$.L9, 824(%rsp)
	movq	$.L10, 832(%rsp)
	movq	$.L11, 840(%rsp)
	movq	$.L12, 848(%rsp)
	movq	$.L13, 856(%rsp)
	movq	$.L14, 864(%rsp)
	movq	$.L15, 872(%rsp)
.LVL0:
	.loc 1 26 0
	movq	c(%rip), %rax
	movq	$.L16, -8(%rax)
.L17:
	.loc 1 335 0
	movq	d(%rip), %rdx
	movq	$1, -8(%rdx)
	.loc 1 336 0
	leaq	-16(%rax), %rcx
	movq	%rcx, c(%rip)
	movq	$.L66, -16(%rax)
	movq	-8(%rdx), %rax
	movq	832(%rsp,%rax,8), %rax
	.loc 1 173 0
	movabsq	$-4616189618054758400, %rbp
	.loc 1 184 0
	movabsq	$4613937818241073152, %r12
	.loc 1 226 0
	movabsq	$4611686018427387904, %r13
	.loc 1 336 0
	jmp	.L85
.LVL1:
.L16:
	.loc 1 28 0
	movq	d(%rip), %rax
	movq	(%rax), %rax
	.loc 1 386 0
	addq	$888, %rsp
	.cfi_remember_state
.LCFI5:
	.cfi_def_cfa_offset 40
	popq	%rbx
.LCFI6:
	.cfi_def_cfa_offset 32
	popq	%rbp
.LCFI7:
	.cfi_def_cfa_offset 24
	popq	%r12
.LCFI8:
	.cfi_def_cfa_offset 16
	popq	%r13
.LCFI9:
	.cfi_def_cfa_offset 8
	ret
.L8:
.LCFI10:
	.cfi_restore_state
	.loc 1 29 0
	movq	d(%rip), %rax
	movq	(%rax), %rsi
	addq	$8, %rax
	movq	%rax, d(%rip)
	movl	$.LC0, %edi
	movl	$0, %eax
	call	printf
	movq	c(%rip), %rdx
	movq	(%rdx), %rax
	addq	$8, %rdx
	movq	%rdx, c(%rip)
.L85:
	jmp	*%rax
.L7:
	.loc 1 30 0
	movq	d(%rip), %rax
	movq	(%rax), %rsi
	addq	$8, %rax
	movq	%rax, d(%rip)
	movl	$.LC1, %edi
	movl	$0, %eax
	call	printf
	movq	c(%rip), %rdx
	movq	(%rdx), %rax
	addq	$8, %rdx
	movq	%rdx, c(%rip)
	jmp	.L85
.L6:
	.loc 1 32 0
	movq	stderr(%rip), %rcx
	movl	$8, %edx
	movl	$1, %esi
	movl	$.LC2, %edi
	call	fwrite
	movq	d(%rip), %rbx
.LVL2:
	cmpq	$data+8388608, %rbx
	jae	.L19
.LVL3:
.L79:
	.loc 1 32 0 is_stmt 0 discriminator 2
	movq	(%rbx), %rcx
	movq	%rbx, %rdx
	subq	d(%rip), %rdx
	sarq	$3, %rdx
	movq	%rcx, %r9
	movq	%rcx, %r8
	subq	$main, %r8
	movl	$.LC3, %esi
	movq	stderr(%rip), %rdi
	movl	$0, %eax
	call	fprintf
	addq	$8, %rbx
.LVL4:
	cmpq	$data+8388608, %rbx
	jb	.L79
.L19:
	.loc 1 33 0 is_stmt 1
	movq	stderr(%rip), %rcx
	movl	$7, %edx
	movl	$1, %esi
	movl	$.LC4, %edi
	call	fwrite
.LVL5:
	cmpq	$dtmp, D(%rip)
	jbe	.L21
	movl	$dtmp, %ebx
.LVL6:
.L22:
	.loc 1 33 0 is_stmt 0 discriminator 2
	movq	(%rbx), %rcx
	.loc 1 20 0 is_stmt 1 discriminator 2
	movq	%rbx, %rdx
	subq	$dtmp, %rdx
	.loc 1 33 0 discriminator 2
	sarq	$3, %rdx
	movq	%rcx, %r9
	movq	%rcx, %r8
	subq	$main, %r8
	movl	$.LC3, %esi
	movq	stderr(%rip), %rdi
	movl	$0, %eax
	call	fprintf
	addq	$8, %rbx
.LVL7:
	cmpq	%rbx, D(%rip)
	ja	.L22
.LVL8:
.L21:
	.loc 1 34 0
	movq	stderr(%rip), %rcx
	movl	$7, %edx
	movl	$1, %esi
	movl	$.LC5, %edi
	call	fwrite
	movq	c(%rip), %rbx
.LVL9:
	cmpq	$code+262144, %rbx
	jae	.L23
.LVL10:
.L78:
	.loc 1 34 0 is_stmt 0 discriminator 2
	movq	(%rbx), %rcx
	subq	$main, %rcx
	movq	%rbx, %rdx
	subq	c(%rip), %rdx
	sarq	$3, %rdx
	movl	$.LC6, %esi
	movq	stderr(%rip), %rdi
	movl	$0, %eax
	call	fprintf
	addq	$8, %rbx
.LVL11:
	cmpq	$code+262144, %rbx
	jb	.L78
.L23:
	.loc 1 35 0 is_stmt 1
	movq	c(%rip), %rdx
	movq	(%rdx), %rax
	addq	$8, %rdx
	movq	%rdx, c(%rip)
	jmp	.L85
.LVL12:
.L5:
	.loc 1 36 0
	movq	d(%rip), %rax
	imull	$1000, (%rax), %edi
	addq	$8, %rax
	movq	%rax, d(%rip)
	call	usleep
	movq	c(%rip), %rdx
	movq	(%rdx), %rax
	addq	$8, %rdx
	movq	%rdx, c(%rip)
	jmp	.L85
.L9:
	.loc 1 38 0
	movq	d(%rip), %rax
	movsbl	(%rax), %edi
	addq	$8, %rax
	movq	%rax, d(%rip)
	movq	stdout(%rip), %rsi
	call	_IO_putc
	movq	c(%rip), %rdx
	movq	(%rdx), %rax
	addq	$8, %rdx
	movq	%rdx, c(%rip)
	jmp	.L85
.L25:
	.loc 1 42 0
	movq	d(%rip), %rax
	movq	$.L4, -8(%rax)
	.loc 1 43 0
	movq	$.L4, tmp(%rip)
	movq	D(%rip), %rdx
	movq	(%rax), %rcx
	movq	%rcx, (%rdx)
	addq	$8, %rdx
	movq	%rdx, D(%rip)
	addq	$8, %rax
	movq	%rax, d(%rip)
	movq	c(%rip), %rax
	leaq	-8(%rax), %rdx
	movq	%rdx, c(%rip)
	movq	$.L26, -8(%rax)
	movl	$.L4, %eax
	jmp	.L85
.L26:
	movq	d(%rip), %rax
	movq	D(%rip), %rdx
	leaq	-8(%rdx), %rcx
	movq	%rcx, D(%rip)
	movq	-8(%rdx), %rdx
	movq	%rdx, -8(%rax)
	.loc 1 45 0
	movq	(%rax), %rdx
	movq	%rdx, %rcx
	movq	%rdx, -16(%rax)
	.loc 1 47 0
	movq	$.L27, -24(%rax)
	.loc 1 49 0
	movq	$.L28, -32(%rax)
	.loc 1 51 0
	leaq	-8(%rax), %rdx
	movq	%rdx, d(%rip)
	cmpq	$1, %rcx
	sbbq	%rdx, %rdx
	andq	$-8, %rdx
	movq	-24(%rax,%rdx), %rax
	jmp	.L85
.L4:
	.loc 1 57 0
	movq	d(%rip), %rax
	subq	$1, (%rax)
	.loc 1 58 0
	movq	c(%rip), %rdx
	movq	(%rdx), %rax
	addq	$8, %rdx
	movq	%rdx, c(%rip)
	jmp	.L85
.L27:
	.loc 1 63 0
	movq	d(%rip), %rax
	.loc 1 64 0
	movq	24(%rax), %rdx
	movq	%rdx, -8(%rax)
	.loc 1 65 0
	movq	%rdx, -16(%rax)
	.loc 1 66 0
	movsd	-8(%rax), %xmm1
	mulsd	-16(%rax), %xmm1
	.loc 1 68 0
	movq	16(%rax), %rdx
	movq	%rdx, -16(%rax)
	.loc 1 69 0
	movq	%rdx, -24(%rax)
	.loc 1 70 0
	movsd	-16(%rax), %xmm0
	mulsd	-24(%rax), %xmm0
	.loc 1 71 0
	addsd	%xmm1, %xmm0
	.loc 1 76 0
	ucomisd	.LC7(%rip), %xmm0
	seta	%dl
	movzbl	%dl, %edx
	movq	%rdx, tmp(%rip)
	movq	%rdx, -8(%rax)
	.loc 1 78 0
	movq	$.L30, -16(%rax)
	.loc 1 80 0
	movq	$.L31, -24(%rax)
	.loc 1 82 0
	cmpq	$1, %rdx
	sbbq	%rdx, %rdx
	andq	$-8, %rdx
	movq	-16(%rax,%rdx), %rax
	jmp	.L85
.L30:
	.loc 1 88 0
	movq	d(%rip), %rax
	.loc 1 89 0
	movq	8(%rax), %rcx
	movq	%rcx, -8(%rax)
	.loc 1 90 0
	movq	$.L3, -16(%rax)
	.loc 1 91 0
	movq	$.L3, tmp(%rip)
	movq	D(%rip), %rdx
	movq	%rcx, (%rdx)
	addq	$8, %rdx
	movq	%rdx, D(%rip)
	movq	c(%rip), %rax
	leaq	-8(%rax), %rdx
	movq	%rdx, c(%rip)
	movq	$.L33, -8(%rax)
	movl	$.L3, %eax
	jmp	.L85
.L33:
	movq	d(%rip), %rax
	leaq	-8(%rax), %rdx
	movq	%rdx, d(%rip)
	movq	D(%rip), %rdx
	leaq	-8(%rdx), %rcx
	movq	%rcx, D(%rip)
	movq	-8(%rdx), %rdx
	movq	%rdx, -8(%rax)
	.loc 1 92 0
	movq	c(%rip), %rdx
	movq	(%rdx), %rax
	addq	$8, %rdx
	movq	%rdx, c(%rip)
	jmp	.L85
.L3:
	.loc 1 97 0
	movq	d(%rip), %rax
	.loc 1 98 0
	movq	$6, -8(%rax)
	.loc 1 99 0
	addq	$48, %rax
	movq	%rax, d(%rip)
	.loc 1 100 0
	movq	c(%rip), %rdx
	movq	(%rdx), %rax
	addq	$8, %rdx
	movq	%rdx, c(%rip)
	jmp	.L85
.L31:
	.loc 1 105 0
	movq	d(%rip), %rcx
	movq	$.L34, -8(%rcx)
	.loc 1 106 0
	movq	$2, -16(%rcx)
.LVL13:
	.loc 1 107 0
	movq	D(%rip), %rdx
	movl	$0, %eax
.LVL14:
.L36:
	.loc 1 107 0 is_stmt 0 discriminator 2
	movslq	%eax, %rsi
	movq	(%rcx,%rsi,8), %rsi
	movq	%rsi, (%rdx)
	addq	$8, %rdx
	addl	$1, %eax
.LVL15:
	movslq	%eax, %rsi
	cmpq	-16(%rcx), %rsi
	jl	.L36
	.loc 1 107 0
	movq	-8(%rcx), %rax
.LVL16:
	movq	%rax, tmp(%rip)
	movq	%rsi, (%rdx)
	leaq	(%rcx,%rsi,8), %rcx
	movq	%rcx, d(%rip)
	addq	$8, %rdx
	movq	%rdx, D(%rip)
	movq	c(%rip), %rdx
	leaq	-8(%rdx), %rcx
	movq	%rcx, c(%rip)
	movq	$.L37, -8(%rdx)
	jmp	.L85
.LVL17:
.L37:
	movq	D(%rip), %rax
	leaq	-8(%rax), %rcx
	movq	%rcx, D(%rip)
	movq	-8(%rax), %rax
	movl	%eax, %r8d
.LVL18:
	testl	%eax, %eax
	jle	.L38
	movq	d(%rip), %rsi
	.loc 1 20 0 is_stmt 1
	subl	$1, %eax
.LVL19:
	negq	%rax
	leaq	-8(,%rax,8), %rdi
	movl	$0, %eax
.LVL20:
.L39:
	.loc 1 107 0 discriminator 2
	movq	-8(%rcx,%rax), %rdx
	movq	%rdx, -8(%rsi,%rax)
	subq	$8, %rax
	cmpq	%rdi, %rax
	jne	.L39
	.loc 1 20 0
	subl	$1, %r8d
	negq	%r8
	leaq	-8(,%r8,8), %rax
	addq	%rax, %rsi
	movq	%rsi, d(%rip)
	addq	%rcx, %rax
	movq	%rax, D(%rip)
.L38:
	.loc 1 109 0
	movq	d(%rip), %rdx
	movq	(%rdx), %rax
	addq	$8, %rdx
	movq	%rdx, d(%rip)
	jmp	.L85
.L34:
	.loc 1 115 0
	movq	d(%rip), %rax
	.loc 1 116 0
	movq	8(%rax), %rdx
	movq	%rdx, -8(%rax)
	.loc 1 117 0
	movq	%rdx, -16(%rax)
	.loc 1 118 0
	movsd	-8(%rax), %xmm0
	mulsd	-16(%rax), %xmm0
	.loc 1 121 0
	movq	(%rax), %rdx
	movq	%rdx, -16(%rax)
	.loc 1 122 0
	movq	%rdx, -24(%rax)
	.loc 1 123 0
	movsd	-16(%rax), %xmm1
	mulsd	-24(%rax), %xmm1
	.loc 1 125 0
	subsd	%xmm1, %xmm0
	.loc 1 129 0
	movq	24(%rax), %rdx
	movq	%rdx, -16(%rax)
	.loc 1 130 0
	addsd	-16(%rax), %xmm0
	movsd	%xmm0, -8(%rax)
	.loc 1 132 0
	movq	$.L2, -16(%rax)
	.loc 1 133 0
	movq	$.L2, tmp(%rip)
	movq	D(%rip), %rdx
	movq	-8(%rax), %rcx
	movq	%rcx, (%rdx)
	addq	$8, %rdx
	movq	%rdx, D(%rip)
	movq	c(%rip), %rax
	leaq	-8(%rax), %rdx
	movq	%rdx, c(%rip)
	movq	$.L40, -8(%rax)
	movl	$.L2, %eax
	jmp	.L85
.L40:
	movq	d(%rip), %rax
	leaq	-8(%rax), %rdx
	movq	%rdx, d(%rip)
	movq	D(%rip), %rdx
	leaq	-8(%rdx), %rcx
	movq	%rcx, D(%rip)
	movq	-8(%rdx), %rdx
	.loc 1 135 0
	movq	%rdx, tmp(%rip)
	movq	(%rax), %rcx
	movq	%rcx, -8(%rax)
	movq	%rdx, (%rax)
	.loc 1 136 0
	movq	c(%rip), %rdx
	movq	(%rdx), %rax
	addq	$8, %rdx
	movq	%rdx, c(%rip)
	jmp	.L85
.L2:
	.loc 1 141 0
	movq	d(%rip), %rax
	movsd	8(%rax), %xmm0
	mulsd	(%rax), %xmm0
	.loc 1 143 0
	addsd	%xmm0, %xmm0
	.loc 1 146 0
	movq	16(%rax), %rdx
	movq	%rdx, (%rax)
	.loc 1 147 0
	addsd	16(%rax), %xmm0
	movsd	%xmm0, 8(%rax)
	.loc 1 141 0
	addq	$8, %rax
	movq	%rax, d(%rip)
	.loc 1 148 0
	movq	c(%rip), %rdx
	movq	(%rdx), %rax
	addq	$8, %rdx
	movq	%rdx, c(%rip)
	jmp	.L85
.L28:
	.loc 1 153 0
	movq	d(%rip), %rax
	.loc 1 154 0
	movq	$6, -8(%rax)
	.loc 1 156 0
	leaq	40(%rax), %rdx
	movq	%rdx, d(%rip)
	movq	$0, 40(%rax)
	.loc 1 157 0
	movq	c(%rip), %rdx
	movq	(%rdx), %rax
	addq	$8, %rdx
	movq	%rdx, c(%rip)
	jmp	.L85
.L41:
	.loc 1 162 0
	movq	d(%rip), %rdx
	.loc 1 166 0
	movq	$10, (%rdx)
	.loc 1 168 0
	movq	$-1, -8(%rdx)
	.loc 1 169 0
	movq	c(%rip), %rax
	leaq	-8(%rax), %rcx
	movq	%rcx, c(%rip)
	movq	$.L42, -8(%rax)
	movq	-8(%rdx), %rax
	movq	832(%rsp,%rax,8), %rax
	jmp	.L85
.L42:
	.loc 1 171 0
	movq	d(%rip), %rdx
	.loc 1 173 0
	movq	%rbp, -8(%rdx)
	.loc 1 175 0
	movq	$.L43, -16(%rdx)
	.loc 1 177 0
	movq	$3, -24(%rdx)
	.loc 1 178 0
	movq	c(%rip), %rax
	leaq	-8(%rax), %rcx
	movq	%rcx, c(%rip)
	movq	$.L44, -8(%rax)
	movq	-24(%rdx), %rax
	movq	832(%rsp,%rax,8), %rax
	subq	$16, %rdx
	movq	%rdx, d(%rip)
	jmp	.L85
.L44:
	.loc 1 179 0
	movq	D(%rip), %rax
	movq	d(%rip), %rdx
	movq	(%rdx), %rcx
	movq	%rcx, (%rax)
	movq	8(%rdx), %rcx
	movq	%rcx, 8(%rax)
	addq	$16, %rdx
	movq	%rdx, d(%rip)
	movq	$0, 16(%rax)
	addq	$24, %rax
	movq	%rax, D(%rip)
	jmp	.L45
.L47:
	.loc 1 179 0 is_stmt 0 discriminator 2
	movq	c(%rip), %rdx
	leaq	-8(%rdx), %rcx
	movq	%rcx, c(%rip)
	movq	$.L46, -8(%rdx)
	movq	d(%rip), %rdx
	leaq	-8(%rdx), %rcx
	movq	%rcx, d(%rip)
	movq	-8(%rax), %rcx
	movq	%rcx, -8(%rdx)
	movq	-16(%rax), %rax
	jmp	.L85
.L46:
	.loc 1 179 0
	movq	D(%rip), %rax
	addq	$1, -8(%rax)
.L45:
	.loc 1 179 0 discriminator 1
	movq	D(%rip), %rax
	movq	-24(%rax), %rdx
	cmpq	%rdx, -8(%rax)
	jl	.L47
	.loc 1 179 0 discriminator 3
	subq	$24, %rax
	movq	%rax, D(%rip)
	.loc 1 181 0 is_stmt 1 discriminator 3
	movq	d(%rip), %rdx
	.loc 1 184 0 discriminator 3
	movq	%r12, (%rdx)
	.loc 1 186 0 discriminator 3
	movq	$4, -8(%rdx)
	.loc 1 187 0 discriminator 3
	movq	c(%rip), %rax
	leaq	-8(%rax), %rcx
	movq	%rcx, c(%rip)
	movq	$.L48, -8(%rax)
	movq	-8(%rdx), %rax
	movq	832(%rsp,%rax,8), %rax
	jmp	.L85
.L48:
	.loc 1 188 0
	movq	d(%rip), %rax
	cvtsi2sdq	(%rax), %xmm1
	movsd	%xmm1, (%rax)
	.loc 1 189 0
	movsd	8(%rax), %xmm0
	divsd	%xmm1, %xmm0
	movsd	%xmm0, 8(%rax)
	.loc 1 190 0
	addsd	16(%rax), %xmm0
	movsd	%xmm0, 16(%rax)
	addq	$16, %rax
	movq	%rax, d(%rip)
	.loc 1 191 0
	movq	c(%rip), %rdx
	movq	(%rdx), %rax
	addq	$8, %rdx
	movq	%rdx, c(%rip)
	jmp	.L85
.L43:
	.loc 1 196 0
	movq	d(%rip), %rdx
	.loc 1 199 0
	movq	16(%rdx), %rax
	movq	%rax, (%rdx)
	.loc 1 201 0
	movq	8(%rdx), %rax
	movq	%rax, -8(%rdx)
	.loc 1 203 0
	movq	$0, -16(%rdx)
	.loc 1 204 0
	movq	c(%rip), %rax
	leaq	-8(%rax), %rcx
	movq	%rcx, c(%rip)
	movq	$.L49, -8(%rax)
	movq	-16(%rdx), %rax
	movq	832(%rsp,%rax,8), %rax
	subq	$8, %rdx
	movq	%rdx, d(%rip)
	jmp	.L85
.L49:
	.loc 1 206 0
	movq	d(%rip), %rdx
	.loc 1 207 0
	movq	$5, -8(%rdx)
	.loc 1 208 0
	movq	c(%rip), %rax
	leaq	-8(%rax), %rcx
	movq	%rcx, c(%rip)
	movq	$.L50, -8(%rax)
	movq	-8(%rdx), %rax
	movq	832(%rsp,%rax,8), %rax
	jmp	.L85
.L50:
	.loc 1 209 0
	movq	d(%rip), %rdx
	movq	(%rdx), %rax
	andq	%rax, 8(%rdx)
	.loc 1 215 0
	movq	$-101, (%rdx)
	.loc 1 216 0
	movq	c(%rip), %rax
	leaq	-8(%rax), %rcx
	movq	%rcx, c(%rip)
	movq	$.L51, -8(%rax)
	movq	(%rdx), %rax
	movq	832(%rsp,%rax,8), %rax
	.loc 1 209 0
	addq	$8, %rdx
	movq	%rdx, d(%rip)
	.loc 1 216 0
	jmp	.L85
.L51:
	.loc 1 218 0
	movq	d(%rip), %rdx
	.loc 1 220 0
	movq	$32, -8(%rdx)
	.loc 1 222 0
	movq	$-1, -16(%rdx)
	.loc 1 223 0
	movq	c(%rip), %rax
	leaq	-8(%rax), %rcx
	movq	%rcx, c(%rip)
	movq	$.L52, -8(%rax)
	movq	-16(%rdx), %rax
	movq	832(%rsp,%rax,8), %rax
	subq	$8, %rdx
	movq	%rdx, d(%rip)
	jmp	.L85
.L52:
	.loc 1 225 0
	movq	d(%rip), %rdx
	.loc 1 226 0
	movq	%r13, -8(%rdx)
	.loc 1 227 0
	movq	$3, -16(%rdx)
	.loc 1 228 0
	movq	c(%rip), %rax
	leaq	-8(%rax), %rcx
	movq	%rcx, c(%rip)
	movq	$.L53, -8(%rax)
	movq	-16(%rdx), %rax
	movq	832(%rsp,%rax,8), %rax
	subq	$8, %rdx
	movq	%rdx, d(%rip)
	jmp	.L85
.L53:
	.loc 1 229 0
	movq	d(%rip), %rax
	cvtsi2sdq	(%rax), %xmm1
	movsd	%xmm1, (%rax)
	.loc 1 230 0
	movsd	8(%rax), %xmm0
	divsd	%xmm1, %xmm0
	movsd	%xmm0, 8(%rax)
	.loc 1 231 0
	addsd	16(%rax), %xmm0
	movsd	%xmm0, 16(%rax)
	addq	$16, %rax
	movq	%rax, d(%rip)
	.loc 1 232 0
	movq	c(%rip), %rdx
	movq	(%rdx), %rax
	addq	$8, %rdx
	movq	%rdx, c(%rip)
	jmp	.L85
.L11:
	.loc 1 237 0
	movq	d(%rip), %rdx
	.loc 1 243 0
	movq	$80, -8(%rdx)
	.loc 1 245 0
	movq	$-1, -16(%rdx)
	.loc 1 246 0
	movq	c(%rip), %rax
	leaq	-8(%rax), %rcx
	movq	%rcx, c(%rip)
	movq	$.L54, -8(%rax)
	movq	-16(%rdx), %rax
	movq	832(%rsp,%rax,8), %rax
	subq	$8, %rdx
	movq	%rdx, d(%rip)
	jmp	.L85
.L54:
	.loc 1 248 0
	movq	d(%rip), %rdx
	.loc 1 250 0
	movq	$50, -8(%rdx)
	.loc 1 252 0
	movq	$-1, -16(%rdx)
	.loc 1 253 0
	movq	c(%rip), %rax
	leaq	-8(%rax), %rcx
	movq	%rcx, c(%rip)
	movq	$.L55, -8(%rax)
	movq	-16(%rdx), %rax
	movq	832(%rsp,%rax,8), %rax
	subq	$8, %rdx
	movq	%rdx, d(%rip)
	jmp	.L85
.L55:
	.loc 1 255 0
	movq	d(%rip), %rdx
	.loc 1 257 0
	movq	$10, -8(%rdx)
	.loc 1 259 0
	movq	$-1, -16(%rdx)
	.loc 1 260 0
	movq	c(%rip), %rax
	leaq	-8(%rax), %rcx
	movq	%rcx, c(%rip)
	movq	$.L56, -8(%rax)
	movq	-16(%rdx), %rax
	movq	832(%rsp,%rax,8), %rax
	subq	$8, %rdx
	movq	%rdx, d(%rip)
	jmp	.L85
.L56:
	.loc 1 262 0
	movq	d(%rip), %rdx
	.loc 1 264 0
	movq	$10, -8(%rdx)
	.loc 1 266 0
	movq	$-1, -16(%rdx)
	.loc 1 267 0
	movq	c(%rip), %rax
	leaq	-8(%rax), %rcx
	movq	%rcx, c(%rip)
	movq	$.L57, -8(%rax)
	movq	-16(%rdx), %rax
	movq	832(%rsp,%rax,8), %rax
	subq	$8, %rdx
	movq	%rdx, d(%rip)
	jmp	.L85
.L57:
	.loc 1 269 0
	movq	d(%rip), %rdx
	movq	$3, -8(%rdx)
	.loc 1 270 0
	movq	c(%rip), %rax
	leaq	-8(%rax), %rcx
	movq	%rcx, c(%rip)
	movq	$.L58, -8(%rax)
	movq	-8(%rdx), %rax
	movq	832(%rsp,%rax,8), %rax
	jmp	.L85
.L58:
	.loc 1 271 0
	movq	d(%rip), %rdx
	.loc 1 275 0
	movq	$-101, -8(%rdx)
	.loc 1 276 0
	movq	c(%rip), %rax
	leaq	-8(%rax), %rcx
	movq	%rcx, c(%rip)
	movq	$.L59, -8(%rax)
	movq	-8(%rdx), %rax
	movq	832(%rsp,%rax,8), %rax
	jmp	.L85
.L59:
	.loc 1 278 0
	movq	d(%rip), %rdx
	.loc 1 279 0
	movq	$4, -8(%rdx)
	.loc 1 280 0
	movq	c(%rip), %rax
	leaq	-8(%rax), %rcx
	movq	%rcx, c(%rip)
	movq	$.L60, -8(%rax)
	movq	-8(%rdx), %rax
	movq	832(%rsp,%rax,8), %rax
	jmp	.L85
.L60:
	.loc 1 281 0
	movq	d(%rip), %rdx
	.loc 1 285 0
	movq	$-101, -8(%rdx)
	.loc 1 286 0
	movq	c(%rip), %rax
	leaq	-8(%rax), %rcx
	movq	%rcx, c(%rip)
	movq	$.L61, -8(%rax)
	movq	-8(%rdx), %rax
	movq	832(%rsp,%rax,8), %rax
	jmp	.L85
.L61:
	.loc 1 288 0
	movq	d(%rip), %rdx
	.loc 1 290 0
	movq	$10, -8(%rdx)
	.loc 1 292 0
	movq	$-1, -16(%rdx)
	.loc 1 293 0
	movq	c(%rip), %rax
	leaq	-8(%rax), %rcx
	movq	%rcx, c(%rip)
	movq	$.L62, -8(%rax)
	movq	-16(%rdx), %rax
	movq	832(%rsp,%rax,8), %rax
	subq	$8, %rdx
	movq	%rdx, d(%rip)
	jmp	.L85
.L62:
	.loc 1 295 0
	movq	d(%rip), %rdx
	.loc 1 296 0
	movq	$5, -8(%rdx)
	.loc 1 297 0
	movq	c(%rip), %rax
	leaq	-8(%rax), %rcx
	movq	%rcx, c(%rip)
	movq	$.L63, -8(%rax)
	movq	-8(%rdx), %rax
	movq	832(%rsp,%rax,8), %rax
	jmp	.L85
.L63:
	.loc 1 298 0
	movq	d(%rip), %rdx
	.loc 1 302 0
	movq	$-101, -8(%rdx)
	.loc 1 303 0
	movq	c(%rip), %rax
	leaq	-8(%rax), %rcx
	movq	%rcx, c(%rip)
	movq	$.L64, -8(%rax)
	movq	-8(%rdx), %rax
	movq	832(%rsp,%rax,8), %rax
	jmp	.L85
.L64:
	.loc 1 305 0
	movq	d(%rip), %rdx
	.loc 1 307 0
	movq	$10, -8(%rdx)
	.loc 1 309 0
	movq	$-1, -16(%rdx)
	.loc 1 310 0
	movq	c(%rip), %rax
	leaq	-8(%rax), %rcx
	movq	%rcx, c(%rip)
	movq	$.L65, -8(%rax)
	movq	-16(%rdx), %rax
	movq	832(%rsp,%rax,8), %rax
	subq	$8, %rdx
	movq	%rdx, d(%rip)
	jmp	.L85
.L65:
	.loc 1 311 0
	movq	c(%rip), %rdx
	movq	(%rdx), %rax
	addq	$8, %rdx
	movq	%rdx, c(%rip)
	jmp	.L85
.L14:
	.loc 1 316 0
	movq	d(%rip), %rax
	leaq	-8(%rax), %rdx
	movq	%rdx, d(%rip)
	.loc 1 320 0
	movq	$1440, -8(%rax)
	.loc 1 321 0
	movq	c(%rip), %rdx
	movq	(%rdx), %rax
	addq	$8, %rdx
	movq	%rdx, c(%rip)
	jmp	.L85
.L12:
	.loc 1 326 0
	movq	d(%rip), %rax
	leaq	-8(%rax), %rdx
	movq	%rdx, d(%rip)
	.loc 1 329 0
	movq	$512, -8(%rax)
	.loc 1 330 0
	movq	c(%rip), %rdx
	movq	(%rdx), %rax
	addq	$8, %rdx
	movq	%rdx, c(%rip)
	jmp	.L85
.L66:
	.loc 1 338 0
	movq	d(%rip), %rdx
	.loc 1 340 0
	movl	$0, -8(%rdx)
	movl	$-1073741824, -4(%rdx)
	.loc 1 342 0
	movq	$.L41, -16(%rdx)
	.loc 1 345 0
	movq	$4, -24(%rdx)
	.loc 1 346 0
	movq	c(%rip), %rax
	leaq	-8(%rax), %rcx
	movq	%rcx, c(%rip)
	movq	$.L68, -8(%rax)
	movq	-24(%rdx), %rax
	movq	832(%rsp,%rax,8), %rax
	subq	$16, %rdx
	movq	%rdx, d(%rip)
	jmp	.L85
.L68:
	.loc 1 347 0
	movq	D(%rip), %rax
	movq	d(%rip), %rdx
	movq	(%rdx), %rcx
	movq	%rcx, (%rax)
	movq	8(%rdx), %rcx
	movq	%rcx, 8(%rax)
	addq	$16, %rdx
	movq	%rdx, d(%rip)
	movq	$0, 16(%rax)
	addq	$24, %rax
	movq	%rax, D(%rip)
	jmp	.L69
.L71:
	.loc 1 347 0 is_stmt 0 discriminator 2
	movq	c(%rip), %rdx
	leaq	-8(%rdx), %rcx
	movq	%rcx, c(%rip)
	movq	$.L70, -8(%rdx)
	movq	d(%rip), %rdx
	leaq	-8(%rdx), %rcx
	movq	%rcx, d(%rip)
	movq	-8(%rax), %rcx
	movq	%rcx, -8(%rdx)
	movq	-16(%rax), %rax
	jmp	.L85
.L70:
	.loc 1 347 0
	movq	D(%rip), %rax
	addq	$1, -8(%rax)
.L69:
	.loc 1 347 0 discriminator 1
	movq	D(%rip), %rax
	movq	-24(%rax), %rdx
	cmpq	%rdx, -8(%rax)
	jl	.L71
	.loc 1 347 0 discriminator 3
	subq	$24, %rax
	movq	%rax, D(%rip)
	.loc 1 350 0 is_stmt 1 discriminator 3
	movq	d(%rip), %rax
	movq	$0, (%rax)
	.loc 1 351 0 discriminator 3
	movq	c(%rip), %rdx
	movq	(%rdx), %rax
	addq	$8, %rdx
	movq	%rdx, c(%rip)
	jmp	.L85
.L15:
	.loc 1 356 0
	movq	d(%rip), %rax
	leaq	-8(%rax), %rdx
	movq	%rdx, d(%rip)
	.loc 1 358 0
	movq	$15, -8(%rax)
	.loc 1 359 0
	movq	c(%rip), %rdx
	movq	(%rdx), %rax
	addq	$8, %rdx
	movq	%rdx, c(%rip)
	jmp	.L85
.L10:
	.loc 1 364 0
	movq	d(%rip), %rdx
	.loc 1 365 0
	movq	8(%rdx), %rax
	movq	%rax, -8(%rdx)
	.loc 1 367 0
	movq	(%rdx), %rax
	movq	%rax, -16(%rdx)
	.loc 1 369 0
	movq	$2, -24(%rdx)
	.loc 1 370 0
	movq	c(%rip), %rax
	leaq	-8(%rax), %rcx
	movq	%rcx, c(%rip)
	movq	$.L72, -8(%rax)
	movq	-24(%rdx), %rax
	movq	832(%rsp,%rax,8), %rax
	subq	$16, %rdx
	movq	%rdx, d(%rip)
	jmp	.L85
.L72:
	.loc 1 372 0
	movq	d(%rip), %rax
	movq	$.L25, -8(%rax)
	.loc 1 373 0
	movq	D(%rip), %rdx
	movq	$.L25, (%rdx)
	addq	$8, %rdx
	movq	%rdx, D(%rip)
	movq	c(%rip), %rax
	leaq	-8(%rax), %rdx
	movq	%rdx, c(%rip)
	movq	$.L73, -8(%rax)
.L74:
	.loc 1 373 0 is_stmt 0 discriminator 1
	movq	d(%rip), %rax
	leaq	-8(%rax), %rdx
	movq	%rdx, d(%rip)
	movq	$.L74, -8(%rax)
	movq	D(%rip), %rax
	movq	-8(%rax), %rax
	jmp	.L85
.L73:
	.loc 1 373 0
	subq	$8, D(%rip)
	.loc 1 374 0 is_stmt 1
	movq	c(%rip), %rdx
	movq	(%rdx), %rax
	addq	$8, %rdx
	movq	%rdx, c(%rip)
	jmp	.L85
.L13:
	.loc 1 379 0
	movq	d(%rip), %rax
	leaq	-8(%rax), %rdx
	movq	%rdx, d(%rip)
	.loc 1 382 0
	movq	$960, -8(%rax)
	.loc 1 383 0
	movq	c(%rip), %rdx
	movq	(%rdx), %rax
	addq	$8, %rdx
	movq	%rdx, c(%rip)
	jmp	.L85
	.cfi_endproc
.LFE18:
	.size	main, .-main
	.data
	.align 8
	.type	c, @object
	.size	c, 8
c:
	.quad	code+262144
	.align 8
	.type	d, @object
	.size	d, 8
d:
	.quad	data+8388608
	.local	data
	.comm	data,8388608,32
	.local	dtmp
	.comm	dtmp,8388608,32
	.align 8
	.type	D, @object
	.size	D, 8
D:
	.quad	dtmp
	.local	code
	.comm	code,262144,32
	.local	tmp
	.comm	tmp,8,8
	.section	.rodata.cst8,"aM",@progbits,8
	.align 8
.LC7:
	.long	0
	.long	1074790400
	.text
.Letext0:
	.file 2 "/usr/lib/gcc/x86_64-unknown-linux-gnu/4.6.1/include/stddef.h"
	.file 3 "/usr/include/bits/types.h"
	.file 4 "/usr/include/libio.h"
	.file 5 "/usr/include/stdio.h"
	.section	.note.GNU-stack,"",@progbits
